(dp0
S'tagprogress'
p1
(dp2
S'/Users/cole/Music/SynchedMusic'
p3
(lp4
S'/Users/cole/Music/SynchedMusic/Apparat/Duplex'
p5
asS'/Users/cole/Music/iTunes/iTunes Media/Music'
p6
(lp7
S'/Users/cole/Music/iTunes/iTunes Media/Music/AFX/Hangable Auto Bulb'
p8
ass.