(dp0
S'tagprogress'
p1
(dp2
S'/Users/cole/Music/SynchedMusic'
p3
(lp4
S'/Users/cole/Music/SynchedMusic/Apparat/Duplex'
p5
assS'taghistory'
p6
c__builtin__
set
p7
((lp8
(S'/Users/cole/Music/iTunes/iTunes Media/Music/Hair Soundtrack/Unknown Album'
p9
tp10
a(S'/Users/cole/Music/iTunes/iTunes Media/Music/Rabbit In The Moon/Northern Exposure'
p11
tp12
a(S'/Users/cole/Music/iTunes/iTunes Media/Music/Sinebag/Unknown Album'
p13
tp14
a(S'/Users/cole/Music/iTunes/iTunes Media/Music/Neon Indian/Era Extran\xcc\x83a'
p15
tp16
a(S'/Users/cole/Music/iTunes/iTunes Media/Music/Ametsub/For Nihon'
p17
tp18
a(S'/Users/cole/Music/iTunes/iTunes Media/Music/Stereolab/The Groop Played _Space Age Bachelor Pad Music_'
p19
tp20
a(S'/Users/cole/Music/iTunes/iTunes Media/Music/James Blake/The Bells Sketch'
p21
tp22
a(S"/Users/cole/Music/iTunes/iTunes Media/Music/L'usine/Language Barrier"
p23
tp24
a(S'/Users/cole/Music/iTunes/iTunes Media/Music/Twoism/Twoism'
p25
tp26
a(S'/Users/cole/Music/iTunes/iTunes Media/Music/Mux Mool/Planet High School'
p27
tp28
a(S'/Users/cole/Music/iTunes/iTunes Media/Music/Modeselektor/Hello Mom!'
p29
tp30
a(S'/Users/cole/Music/iTunes/iTunes Media/Music/The American Dollar/Ambient One'
p31
tp32
a(S'/Users/cole/Music/iTunes/iTunes Media/Music/Aphex Twin/Ventolin Remixes'
p33
tp34
a(S'/Users/cole/Music/iTunes/iTunes Media/Music/Wagon Christ/Sorry I Make You Lush'
p35
tp36
a(S'/Users/cole/Music/iTunes/iTunes Media/Music/Jap Jap/Blue Shimmery Fall'
p37
tp38
a(S'/Users/cole/Music/iTunes/iTunes Media/Music/Nightmares On Wax'
p39
S'/Users/cole/Music/iTunes/iTunes Media/Music/Nightmares On Wax/Warp 10+3 Remixes (Disc 1)'
p40
tp41
a(S'/Users/cole/Music/iTunes/iTunes Media/Music/Plaid/Booc'
p42
tp43
a(S'/Users/cole/Music/iTunes/iTunes Media/Music/Radiohead/My Iron Lung EP'
p44
tp45
a(S'/Users/cole/Music/iTunes/iTunes Media/Music/The Depreciation Guild/In Her Gentle Jaws'
p46
tp47
a(S'/Users/cole/Music/iTunes/iTunes Media/Music/Joseph Mineado/For Nihon'
p48
tp49
a(S'/Users/cole/Music/iTunes/iTunes Media/Music/Tycho/Past Is Prologue'
p50
tp51
a(S'/Users/cole/Music/iTunes/iTunes Media/Music/String Theory/Anhedonia'
p52
tp53
a(S'/Users/cole/Music/iTunes/iTunes Media/Music/Ochre/National Ignition'
p54
tp55
a(S'/Users/cole/Music/iTunes/iTunes Media/Music/Freescha/Head Warlock Double Stare'
p56
tp57
a(S'/Users/cole/Music/iTunes/iTunes Media/Music/Boards of Canada/Live @ Lighthouse'
p58
tp59
a(S'/Users/cole/Music/iTunes/iTunes Media/Music/Cardamar/Unknown Album'
p60
tp61
a(S'/Users/cole/Music/iTunes/iTunes Media/Music/Mogwai/Happy Songs For Happy People'
p62
tp63
a(S'/Users/cole/Music/iTunes/iTunes Media/Music/Freescha/Kids Fill the Floor'
p64
tp65
a(S'/Users/cole/Music/iTunes/iTunes Media/Music/Robert Henke/Signal to Noise'
p66
tp67
a(S'/Users/cole/Music/iTunes/iTunes Media/Music/Aphex Twin/Selected Ambient Works Volume II (disc 2)'
p68
tp69
a(S'/Users/cole/Music/iTunes/iTunes Media/Music/Pixies/Velouria Live'
p70
tp71
a(S"/Users/cole/Music/iTunes/iTunes Media/Music/Bop/Punk's Not Dead"
p72
tp73
a(S'/Users/cole/Music/iTunes/iTunes Media/Music/Conelrad/Sure is the Risk Made'
p74
tp75
a(S'/Users/cole/Music/iTunes/iTunes Media/Music/Compilations/We Are Reasonable People'
p76
tp77
a(S'/Users/cole/Music/iTunes/iTunes Media/Music/arovane/lilies'
p78
tp79
a(S'/Users/cole/Music/iTunes/iTunes Media/Music/Plaid/Double Figure'
p80
tp81
a(S'/Users/cole/Music/iTunes/iTunes Media/Music/Beacon/The Ways We Separate'
p82
tp83
a(S'/Users/cole/Music/iTunes/iTunes Media/Music/Bjo\xcc\x88rk/Homogenic'
p84
tp85
a(S"/Users/cole/Music/iTunes/iTunes Media/Music/Boards of Canada/Tomorrow's Harvest"
p86
tp87
a(S'/Users/cole/Music/iTunes/iTunes Media/Music/Plaid/Tekkonkinkreet O.S.T_'
p88
tp89
a(S'/Users/cole/Music/iTunes/iTunes Media/Music/Bexar Bexar/Haralambos'
p90
tp91
a(S'/Users/cole/Music/iTunes/iTunes Media/Music/Amon Tobin/Bricolage'
p92
tp93
a(S'/Users/cole/Music/iTunes/iTunes Media/Music/Caribou/The Milk of Human Kindness'
p94
tp95
a(S'/Users/cole/Music/iTunes/iTunes Media/Music/Red Devil/Northern Exposure - Expedition 2'
p96
tp97
a(S'/Users/cole/Music/iTunes/iTunes Media/Music/Black Moth Super Rainbow/Lost, Picking Flowers in the Woods'
p98
tp99
a(S'/Users/cole/Music/iTunes/iTunes Media/Music/Squarepusher/Lost In Translation - Music From The Motion Picture Soundtrack'
p100
tp101
a(S'/Users/cole/Music/iTunes/iTunes Media/Music/Boards of Canada/Mask 100'
p102
tp103
a(S'/Users/cole/Music/iTunes/iTunes Media/Music/Four Tet/Beautiful Rewind'
p104
tp105
a(S'/Users/cole/Music/iTunes/iTunes Media/Music/Ulrich Schnauss & Jonas Munk Jensen/Epic'
p106
tp107
a(S'/Users/cole/Music/iTunes/iTunes Media/Music/Mount Kimbie/Cold Spring Fault Less Youth'
p108
tp109
a(S'/Users/cole/Music/iTunes/iTunes Media/Music/Belong/Common Era'
p110
tp111
a(S'/Users/cole/Music/iTunes/iTunes Media/Music/Ruxpin/This Time We Go Together'
p112
tp113
a(S"/Users/cole/Music/iTunes/iTunes Media/Music/Thom Yorke/Tomorrow's Modern Boxes"
p114
tp115
a(S'/Users/cole/Music/iTunes/iTunes Media/Music/Near The Parenthesis/Cloud.Not Mountain'
p116
tp117
a(S'/Users/cole/Music/iTunes/iTunes Media/Music/Aeroc/R+B=_'
p118
tp119
a(S'/Users/cole/Music/iTunes/iTunes Media/Music/naono/Sleepy Pebbles'
p120
tp121
a(S'/Users/cole/Music/iTunes/iTunes Media/Music/loscil/Coast_ Range_ Arc'
p122
tp123
a(S'/Users/cole/Music/iTunes/iTunes Media/Music/Aphex Twin/Syro'
p124
tp125
a(S'/Users/cole/Music/iTunes/iTunes Media/Music/Baths/Cerulean'
p126
tp127
a(S'/Users/cole/Music/iTunes/iTunes Media/Music/Bjo\xcc\x88rk/Being John Malkovich - Soundtrack'
p128
tp129
a(S'/Users/cole/Music/iTunes/iTunes Media/Music/Neon Indian/Psychic Chasms'
p130
tp131
a(S'/Users/cole/Music/iTunes/iTunes Media/Music/Radiohead/Karma Police (Disc 2)'
p132
tp133
a(S'/Users/cole/Music/iTunes/iTunes Media/Music/Ulrich Schnauss & Jonas Munk/Epic'
p134
tp135
a(S'/Users/cole/Music/iTunes/iTunes Media/Music/Ametsub/The Nothings of the North'
p136
tp137
a(S'/Users/cole/Music/iTunes/iTunes Media/Music/The American Dollar/For Nihon'
p138
tp139
a(S'/Users/cole/Music/iTunes/iTunes Media/Music/Hollie Kenniff/For Nihon'
p140
tp141
a(S'/Users/cole/Music/iTunes/iTunes Media/Music/LFO/Sheath'
p142
tp143
a(S'/Users/cole/Music/iTunes/iTunes Media/Music/M83/Before the Dawn Heals Us'
p144
tp145
a(S'/Users/cole/Music/iTunes/iTunes Media/Music/Stereolab/Mars Audiac Quintet'
p146
tp147
a(S'/Users/cole/Music/iTunes/iTunes Media/Music/Trans-Bedroom Sound/Elmwood'
p148
tp149
a(S'/Users/cole/Music/iTunes/iTunes Media/Music/Radiohead/Airbag - How Am I Driving EP'
p150
tp151
a(S'/Users/cole/Music/iTunes/iTunes Media/Music/Milieu/Remodelled'
p152
tp153
a(S'/Users/cole/Music/iTunes/iTunes Media/Music/Ben Frost/A U R O R A'
p154
tp155
a(S'/Users/cole/Music/iTunes/iTunes Media/Music/Album Leaf, The/Seal Beach EP'
p156
tp157
a(S'/Users/cole/Music/iTunes/iTunes Media/Music/The Flashbulb/These Open Fields'
p158
tp159
a(S'/Users/cole/Music/iTunes/iTunes Media/Music/Ametsub/Linear Cryptics'
p160
tp161
a(S'/Users/cole/Music/iTunes/iTunes Media/Music/Ryuichi Sakamoto/For Nihon'
p162
tp163
a(S'/Users/cole/Music/iTunes/iTunes Media/Music/Araya/The Bridge of Hesitation'
p164
tp165
a(S'/Users/cole/Music/iTunes/iTunes Media/Music/Modeselektor/Monkeytown'
p166
tp167
a(S'/Users/cole/Music/iTunes/iTunes Media/Music/Morgan King/Northern Exposure'
p168
tp169
a(S'/Users/cole/Music/iTunes/iTunes Media/Music/Prefuse 73/One Word Extinguisher'
p170
tp171
a(S'/Users/cole/Music/iTunes/iTunes Media/Music/Marc Atmost/Above'
p172
tp173
a(S'/Users/cole/Music/iTunes/iTunes Media/Music/Compilations/Northern Exposure 2 - Eastcoast Edition'
p174
tp175
a(S'/Users/cole/Music/iTunes/iTunes Media/Music/I.S.A.N_/Lucky Cat'
p176
tp177
a(S'/Users/cole/Music/iTunes/iTunes Media/Music/Air/Casanova 70 ep'
p178
tp179
a(S'/Users/cole/Music/iTunes/iTunes Media/Music/Little Phrase/For Nihon'
p180
tp181
a(S'/Users/cole/Music/iTunes/iTunes Media/Music/Pixies/Complete B-Sides'
p182
tp183
a(S'/Users/cole/Music/iTunes/iTunes Media/Music/Mux Mool/Under The Mountain compilation [ISO50 Exclusive]'
p184
tp185
a(S'/Users/cole/Music/iTunes/iTunes Media/Music/The American Dollar/Live in Brooklyn'
p186
tp187
a(S'/Users/cole/Music/iTunes/iTunes Media/Music/Kettel/Re_ Through Friendly Waters'
p188
tp189
a(S'/Users/cole/Music/iTunes/iTunes Media/Music/Autechre/Oversteps'
p190
tp191
a(S'/Users/cole/Music/iTunes/iTunes Media/Music/Daedelus/Live At Low End Theory'
p192
tp193
a(S'/Users/cole/Music/iTunes/iTunes Media/Music/Plaid/scintilli'
p194
tp195
a(S'/Users/cole/Music/iTunes/iTunes Media/Music/Deru/For Nihon'
p196
tp197
a(S'/Users/cole/Music/iTunes/iTunes Media/Music/As One/21st Century Soul'
p198
tp199
a(S'/Users/cole/Music/iTunes/iTunes Media/Music/Paneye/Secret Station - Broadcast Four'
p200
tp201
a(S'/Users/cole/Music/iTunes/iTunes Media/Music/Sigur Ros/Agaetis Byrjun'
p202
tp203
a(S'/Users/cole/Music/iTunes/iTunes Media/Music/Jan Jelinek/Loop-Finding-Jazz-Records'
p204
tp205
a(S'/Users/cole/Music/iTunes/iTunes Media/Music/The Flashbulb/Love as a Dark Hallway'
p206
tp207
a(S'/Users/cole/Music/iTunes/iTunes Media/Music/Aphex Twin/Classics'
p208
tp209
a(S'/Users/cole/Music/iTunes/iTunes Media/Music/Aphex Twin/Peel Session 2'
p210
tp211
a(S'/Users/cole/Music/iTunes/iTunes Media/Music/Essa\xcc\x81y/Distance & Lights EP'
p212
tp213
a(S'/Users/cole/Music/iTunes/iTunes Media/Music/Aphex Twin/_..I Care Because You Do'
p214
tp215
a(S'/Users/cole/Music/iTunes/iTunes Media/Music/Malcom Kipe & Boards of Canada mixed by Grim on Mbient/Unknown Album'
p216
tp217
a(S'/Users/cole/Music/iTunes/iTunes Media/Music/www.boardsofcanada.com/Unknown Album'
p218
tp219
a(S'/Users/cole/Music/iTunes/iTunes Media/Music/Maps and Diagrams/Antennas And Signals'
p220
tp221
a(S'/Users/cole/Music/iTunes/iTunes Media/Music/Radiohead/The Bends'
p222
tp223
a(S'/Users/cole/Music/iTunes/iTunes Media/Music/Kelpe/Fourth_ The Golden Eagle'
p224
tp225
a(S'/Users/cole/Music/iTunes/iTunes Media/Music/Ulrich Schnauss/A Strangely Isolated Place'
p226
tp227
a(S'/Users/cole/Music/iTunes/iTunes Media/Music/Helios/For Nihon'
p228
tp229
a(S'/Users/cole/Music/iTunes/iTunes Media/Music/Boards of Canada/SKA008'
p230
tp231
a(S'/Users/cole/Music/iTunes/iTunes Media/Music/Aphex Twin/Live-Roskilde Festival'
p232
tp233
a(S'/Users/cole/Music/iTunes/iTunes Media/Music/Aphex Twin/Selected Ambient Works Vol 2 (Disc 1)'
p234
tp235
a(S'/Users/cole/Music/iTunes/iTunes Media/Music/Christopher Willits/Surf Boundaries'
p236
tp237
a(S'/Users/cole/Music/iTunes/iTunes Media/Music/Plumbline/Pinpoints'
p238
tp239
a(S'/Users/cole/Music/iTunes/iTunes Media/Music/Applescal/Dreaming In Key'
p240
tp241
a(S'/Users/cole/Music/iTunes/iTunes Media/Music/Boards of Canada/Live@ATP Apr-07'
p242
tp243
a(S'/Users/cole/Music/iTunes/iTunes Media/Music/Bibio/Ambivalence Avenue'
p244
tp245
a(S'/Users/cole/Music/iTunes/iTunes Media/Music/DJ Shadow/Endtroducing.._'
p246
tp247
a(S'/Users/cole/Music/iTunes/iTunes Media/Music/Airiel/Winks & Kisses_ Melted'
p248
tp249
a(S'/Users/cole/Music/iTunes/iTunes Media/Music/Midwest Product/World Series of Love'
p250
tp251
a(S'/Users/cole/Music/iTunes/iTunes Media/Music/Teen Daze/Four More Years'
p252
tp253
a(S'/Users/cole/Music/iTunes/iTunes Media/Music/Galerie Stratique/Horizzzons'
p254
tp255
a(S'/Users/cole/Music/iTunes/iTunes Media/Music/Autechre/Anti EP'
p256
tp257
a(S'/Users/cole/Music/iTunes/iTunes Media/Music/Stereolab/The First Of The Microbe Hunters'
p258
tp259
a(S'/Users/cole/Music/iTunes/iTunes Media/Music/KiloWatts/Routes'
p260
tp261
a(S'/Users/cole/Music/iTunes/iTunes Media/Music/loscil/Endless Falls'
p262
tp263
a(S'/Users/cole/Music/iTunes/iTunes Media/Music/Boards of Canada/Dirty Great Mable'
p264
tp265
a(S'/Users/cole/Music/iTunes/iTunes Media/Music/Eluvium/Talk Amongst the Trees'
p266
tp267
a(S'/Users/cole/Music/iTunes/iTunes Media/Music/Christ_/Distance Lends Enchantment to the View'
p268
tp269
a(S'/Users/cole/Music/iTunes/iTunes Media/Music/Jon Hopkins/Insides'
p270
tp271
a(S'/Users/cole/Music/iTunes/iTunes Media/Music/Keiichi Suzuki/Northern Exposure'
p272
tp273
a(S'/Users/cole/Music/iTunes/iTunes Media/Music/Autechre/EP7'
p274
tp275
a(S'/Users/cole/Music/iTunes/iTunes Media/Music/Tim Hecker/Virgins'
p276
tp277
a(S'/Users/cole/Music/iTunes/iTunes Media/Music/Lusine/Arterial'
p278
tp279
a(S'/Users/cole/Music/iTunes/iTunes Media/Music/Radiohead/Pyramid Song [SINGLE] #1'
p280
tp281
a(S'/Users/cole/Music/iTunes/iTunes Media/Music/Tim Hecker/An Imaginary Country'
p282
tp283
a(S'/Users/cole/Music/iTunes/iTunes Media/Music/Radiohead/Knives Out [SINGLE] #2'
p284
tp285
a(S'/Users/cole/Music/iTunes/iTunes Media/Music/Boards of Canada/June 9th Remix EP'
p286
tp287
a(S'/Users/cole/Music/iTunes/iTunes Media/Music/Boards of Canada/A Few Old Tunes'
p288
tp289
a(S'/Users/cole/Music/iTunes/iTunes Media/Music/Rhian Sheehan/Stories From Elsewhere'
p290
tp291
a(S'/Users/cole/Music/iTunes/iTunes Media/Music/Manual/Until Tomorrow'
p292
tp293
a(S'/Users/cole/Music/iTunes/iTunes Media/Music/Near The Parenthesis/Go Out and See'
p294
tp295
a(S'/Users/cole/Music/iTunes/iTunes Media/Music/Boards of Canada/Warp 10+3 Remixes (Disc 1)'
p296
tp297
a(S'/Users/cole/Music/iTunes/iTunes Media/Music/Tobacco/Ultima II Massage [Explicit]'
p298
tp299
a(S'/Users/cole/Music/iTunes/iTunes Media/Music/Manual/Drowned In Light'
p300
tp301
a(S"/Users/cole/Music/iTunes/iTunes Media/Music/L'usine/Serial Hodgepodge"
p302
tp303
a(S'/Users/cole/Music/iTunes/iTunes Media/Music/The American Dollar/A Memory Stream'
p304
tp305
a(S'/Users/cole/Music/iTunes/iTunes Media/Music/Boards of Canada/Aquarius'
p306
tp307
a(S'/Users/cole/Music/iTunes/iTunes Media/Music/RR Workshop/Northern Exposure - Expedition 2'
p308
tp309
a(S'/Users/cole/Music/iTunes/iTunes Media/Music/Amon Tobin/Permutation'
p310
tp311
a(S'/Users/cole/Music/iTunes/iTunes Media/Music/The Flashbulb/Soundtrack to a Vacant Life'
p312
tp313
a(S'/Users/cole/Music/iTunes/iTunes Media/Music/Boards of Canada/Prime Audio Soup'
p314
tp315
a(S'/Users/cole/Music/iTunes/iTunes Media/Music/Casino Versus Japan/Night On Tape'
p316
tp317
a(S'/Users/cole/Music/iTunes/iTunes Media/Music/aus/Light in August, Later'
p318
tp319
a(S'/Users/cole/Music/iTunes/iTunes Media/Music/Lusine/The Waiting Room'
p320
tp321
a(S'/Users/cole/Music/iTunes/iTunes Media/Music/Autechre/LP5'
p322
tp323
a(S'/Users/cole/Music/iTunes/iTunes Media/Music/Broadcast/Warp 10+3 Remixes (Disc 1)'
p324
S'/Users/cole/Music/iTunes/iTunes Media/Music/Broadcast/Warp 10+3 Remixes (Disc 2)'
p325
tp326
a(S'/Users/cole/Music/iTunes/iTunes Media/Music/Daft Punk/Random Access Memories'
p327
tp328
a(S'/Users/cole/Music/iTunes/iTunes Media/Music/Booka Shade/Movements'
p329
tp330
a(S'/Users/cole/Music/iTunes/iTunes Media/Music/Air/Lost In Translation - Music From The Motion Picture Soundtrack'
p331
tp332
a(S"/Users/cole/Music/iTunes/iTunes Media/Music/Emeralds/Does It Look Like I'm Here_"
p333
tp334
a(S'/Users/cole/Music/iTunes/iTunes Media/Music/Tim Koch/Faena'
p335
tp336
a(S'/Users/cole/Music/iTunes/iTunes Media/Music/Teen Daze/The Inner Mansions'
p337
tp338
a(S'/Users/cole/Music/iTunes/iTunes Media/Music/Mike Koglin/Northern Exposure - Expedition 2'
p339
tp340
a(S'/Users/cole/Music/iTunes/iTunes Media/Music/Amon Tobin/Out From Out Where'
p341
tp342
a(S'/Users/cole/Music/iTunes/iTunes Media/Music/Godspeed You Black Emperor!/Slow Riot For New Zero Kanada'
p343
tp344
a(S'/Users/cole/Music/iTunes/iTunes Media/Music/Letherette/Letherette'
p345
tp346
a(S'/Users/cole/Music/iTunes/iTunes Media/Music/The engineers/Three Fact Fader'
p347
tp348
a(S'/Users/cole/Music/iTunes/iTunes Media/Music/Teeel/Under The Mountain compilation [ISO50 Exclusive]'
p349
tp350
a(S'/Users/cole/Music/iTunes/iTunes Media/Music/Apparat/Walls'
p351
tp352
a(S'/Users/cole/Music/iTunes/iTunes Media/Music/James Blake/CMYK'
p353
tp354
a(S'/Users/cole/Music/iTunes/iTunes Media/Music/VHS Head/Persistence of Vision'
p355
tp356
a(S'/Users/cole/Music/iTunes/iTunes Media/Music/Conelrad/Community Shelter Planning'
p357
tp358
a(S'/Users/cole/Music/iTunes/iTunes Media/Music/Radiohead/Knives Out (Disc 2)'
p359
tp360
a(S'/Users/cole/Music/iTunes/iTunes Media/Music/Jon Hopkins/Opalescent'
p361
tp362
a(S'/Users/cole/Music/iTunes/iTunes Media/Music/Principles Of Geometry/Lazare'
p363
tp364
a(S'/Users/cole/Music/iTunes/iTunes Media/Music/Cinematic Orchestra/Ma Fleur'
p365
tp366
a(S'/Users/cole/Music/iTunes/iTunes Media/Music/Nosaj Thing/Drift'
p367
tp368
a(S'/Users/cole/Music/iTunes/iTunes Media/Music/Specta Ciera/Secret Station - Broadcast Four'
p369
tp370
a(S'/Users/cole/Music/iTunes/iTunes Media/Music/Mount Kimbie/Crooks & Lovers'
p371
tp372
a(S'/Users/cole/Music/iTunes/iTunes Media/Music/Loess/Wind and Water'
p373
tp374
a(S'/Users/cole/Music/iTunes/iTunes Media/Music/Lawrence English/A Colour For Autumn'
p375
tp376
a(S'/Users/cole/Music/iTunes/iTunes Media/Music/Kettel/Myam James 2'
p377
tp378
a(S'/Users/cole/Music/iTunes/iTunes Media/Music/James Blake/Klavierwerke EP'
p379
tp380
a(S'/Users/cole/Music/iTunes/iTunes Media/Music/Plaid/Not for Threes'
p381
tp382
a(S'/Users/cole/Music/iTunes/iTunes Media/Music/Orbital/Snivilisation'
p383
tp384
a(S'/Users/cole/Music/iTunes/iTunes Media/Music/Compilations/Northern Exposure - Expeditions (Disc 1)'
p385
tp386
a(S'/Users/cole/Music/iTunes/iTunes Media/Music/Chicane feat. Marie Brennan/Unknown Album'
p387
tp388
a(S'/Users/cole/Music/iTunes/iTunes Media/Music/Autechre/Peel Session 2'
p389
tp390
a(S'/Users/cole/Music/iTunes/iTunes Media/Music/Daft Punk/Discovery'
p391
tp392
a(S'/Users/cole/Music/iTunes/iTunes Media/Music/Mrs Jynx/The Standoffish Cat'
p393
tp394
a(S'/Users/cole/Music/iTunes/iTunes Media/Music/Godspeed You Black Emperor!/John Peel Session; Live'
p395
tp396
a(S'/Users/cole/Music/iTunes/iTunes Media/Music/Houses/All Night'
p397
tp398
a(S'/Users/cole/Music/iTunes/iTunes Media/Music/Stereolab/Dots And Loops'
p399
tp400
a(S'/Users/cole/Music/iTunes/iTunes Media/Music/Georg Neufeld/[gruen016] The Billi-Jane Tracks'
p401
tp402
a(S"/Users/cole/Music/iTunes/iTunes Media/Music/L'usine/Lucky Numbers_ The Ghostly International EPs"
p403
tp404
a(S'/Users/cole/Music/iTunes/iTunes Media/Music/Portishead/Toy Box (Special Edition)'
p405
tp406
a(S'/Users/cole/Music/iTunes/iTunes Media/Music/Apparat/DJ-KiCKS'
p407
tp408
a(S'/Users/cole/Music/iTunes/iTunes Media/Music/Plaid/Undoneson'
p409
tp410
a(S'/Users/cole/Music/iTunes/iTunes Media/Music/Speedy J/Northern Exposure 2 - Westcoast Edition'
p411
tp412
a(S'/Users/cole/Music/iTunes/iTunes Media/Music/Radiohead/I Might Be Wrong - Live Recordings'
p413
tp414
a(S'/Users/cole/Music/iTunes/iTunes Media/Music/Autechre/Unreleased'
p415
tp416
a(S'/Users/cole/Music/iTunes/iTunes Media/Music/Caribou/Swim'
p417
tp418
a(S'/Users/cole/Music/iTunes/iTunes Media/Music/Aphex Twin/Live at the Big Day Out Festival'
p419
tp420
a(S'/Users/cole/Music/iTunes/iTunes Media/Music/Conelrad/bunker 1_ b-sides 2005-2013'
p421
tp422
a(S'/Users/cole/Music/iTunes/iTunes Media/Music/Plaid/Spokes'
p423
tp424
a(S'/Users/cole/Music/iTunes/iTunes Media/Music/Radiohead/Pablo Honey B-Sides'
p425
tp426
a(S'/Users/cole/Music/iTunes/iTunes Media/Music/The Flashbulb/Hardscrabble'
p427
tp428
a(S'/Users/cole/Music/iTunes/iTunes Media/Music/Fuzzy Logic/Northern Exposure'
p429
tp430
a(S'/Users/cole/Music/iTunes/iTunes Media/Music/Aphex Twin/Ventolin EP (The Remixes)'
p431
tp432
a(S'/Users/cole/Music/iTunes/iTunes Media/Music/Lusine/Serial Hodgepodge'
p433
tp434
a(S'/Users/cole/Music/iTunes/iTunes Media/Music/Global Communication/76_14'
p435
tp436
a(S'/Users/cole/Music/iTunes/iTunes Media/Music/DJ Mink'
p437
S'/Users/cole/Music/iTunes/iTunes Media/Music/DJ Mink/Warp 10+3 Remixes (Disc 1)'
p438
tp439
a(S'/Users/cole/Music/iTunes/iTunes Media/Music/Billow Observatory/Billow Observatory'
p440
tp441
a(S'/Users/cole/Music/iTunes/iTunes Media/Music/Radiohead/No Surprises (Single)'
p442
tp443
a(S'/Users/cole/Music/iTunes/iTunes Media/Music/Life as a Mirage/Life as a Mirage'
p444
tp445
a(S'/Users/cole/Music/iTunes/iTunes Media/Music/Secede/Bye Bye Gridlock Traffic'
p446
tp447
a(S'/Users/cole/Music/iTunes/iTunes Media/Music/Squarepusher/Go Plastic'
p448
tp449
a(S'/Users/cole/Music/iTunes/iTunes Media/Music/Telefon Tel Aviv/Map of What is Effortless'
p450
tp451
a(S'/Users/cole/Music/iTunes/iTunes Media/Music/Stereolab/Oscillions Fron The Anti Sun'
p452
tp453
a(S'/Users/cole/Music/iTunes/iTunes Media/Music/Sigur Ro\xcc\x81s/A\xcc\x81g\xc3\xa6tis byrjun'
p454
tp455
a(S'/Users/cole/Music/iTunes/iTunes Media/Music/Radiohead/Paranoid Android [SINGLE] #2'
p456
tp457
a(S'/Users/cole/Music/iTunes/iTunes Media/Music/Bjo\xcc\x88rk/Selmasongs'
p458
tp459
a(S'/Users/cole/Music/iTunes/iTunes Media/Music/Yimino/Evolution 2002'
p460
tp461
a(S'/Users/cole/Music/iTunes/iTunes Media/Music/Radiohead/Pop Is Dead Single'
p462
tp463
a(S'/Users/cole/Music/iTunes/iTunes Media/Music/Ryuichi Sakamoto/Bttb'
p464
tp465
a(S'/Users/cole/Music/iTunes/iTunes Media/Music/Beek (Chris J. Hampton)/Unknown Album'
p466
tp467
a(S'/Users/cole/Music/iTunes/iTunes Media/Music/Thalia Zedek/Liars And Prayers'
p468
tp469
a(S'/Users/cole/Music/iTunes/iTunes Media/Music/Chris Clark/Totems Flare'
p470
tp471
a(S'/Users/cole/Music/iTunes/iTunes Media/Music/Ulrich Schnauss/Missing Deadlines _ Selected Remixes'
p472
tp473
a(S'/Users/cole/Music/iTunes/iTunes Media/Music/Funckarma/Part 4 EP'
p474
tp475
a(S'/Users/cole/Music/iTunes/iTunes Media/Music/The Orb/Orbus Terrarum'
p476
tp477
a(S'/Users/cole/Music/iTunes/iTunes Media/Music/Cex/Presumed Dead'
p478
tp479
a(S'/Users/cole/Music/iTunes/iTunes Media/Music/Washed Out/Within And Without'
p480
tp481
a(S'/Users/cole/Music/iTunes/iTunes Media/Music/Autechre/Garbage'
p482
tp483
a(S'/Users/cole/Music/iTunes/iTunes Media/Music/Amon Tobin/Out, From Out Where'
p484
tp485
a(S'/Users/cole/Music/iTunes/iTunes Media/Music/Radiohead/The Bends B-sides'
p486
tp487
a(S'/Users/cole/Music/iTunes/iTunes Media/Music/Ex Confusion/For Nihon'
p488
tp489
a(S'/Users/cole/Music/iTunes/iTunes Media/Music/Modeselektor Feat. TTC/Hello Mom!'
p490
tp491
a(S'/Users/cole/Music/iTunes/iTunes Media/Music/Ben Benjamin/The Many Moods of Ben Benjamin Vol. 1'
p492
tp493
a(S'/Users/cole/Music/iTunes/iTunes Media/Music/Head Honcho/Northern Exposure - Expedition 2'
p494
tp495
a(S'/Users/cole/Music/iTunes/iTunes Media/Music/Broadcast/The Noise Made By People'
p496
tp497
a(S"/Users/cole/Music/iTunes/iTunes Media/Music/L'usine/Podgelism"
p498
tp499
a(S'/Users/cole/Music/iTunes/iTunes Media/Music/Retic/Saturn Day Trajectory'
p500
tp501
a(S'/Users/cole/Music/iTunes/iTunes Media/Music/Radiohead/Pablo Honey'
p502
tp503
a(S'/Users/cole/Music/iTunes/iTunes Media/Music/A Sunny Day In Glasgow/Ashes Grammar'
p504
tp505
a(S'/Users/cole/Music/iTunes/iTunes Media/Music/Susumu Yokota/Skintone Collection_ The Best of Susumu Yokota'
p506
tp507
a(S'/Users/cole/Music/iTunes/iTunes Media/Music/Nathan Fake/Drowning In A Sea Of Love'
p508
tp509
a(S'/Users/cole/Music/iTunes/iTunes Media/Music/Bent/Programmed To Love'
p510
tp511
a(S'/Users/cole/Music/iTunes/iTunes Media/Music/Music Theory for Computer Musicians/Music Theory for Computer Musicians'
p512
tp513
a(S'/Users/cole/Music/iTunes/iTunes Media/Music/Foxes In Fiction/Under The Mountain compilation [ISO50 Exclusive]'
p514
tp515
a(S'/Users/cole/Music/iTunes/iTunes Media/Music/Daedelus/Love To Make Music To'
p516
tp517
a(S'/Users/cole/Music/iTunes/iTunes Media/Music/Ulrich Schnauss/77 EP'
p518
tp519
a(S'/Users/cole/Music/iTunes/iTunes Media/Music/Portishead/Roseland Nyc Live'
p520
tp521
a(S'/Users/cole/Music/iTunes/iTunes Media/Music/Casino Versus Japan/Casino Versus Japan'
p522
tp523
a(S'/Users/cole/Music/iTunes/iTunes Media/Music/Orbital/The Middle Of Nowhere'
p524
tp525
a(S'/Users/cole/Music/iTunes/iTunes Media/Music/Essa\xcc\x81y/Morning Mountain'
p526
tp527
a(S'/Users/cole/Music/iTunes/iTunes Media/Music/Radiohead/Paranoid Android (Disc 1)'
p528
tp529
a(S'/Users/cole/Music/iTunes/iTunes Media/Music/Amon Tobin/Verbal Remixes & Collaborations'
p530
tp531
a(S'/Users/cole/Music/iTunes/iTunes Media/Music/Radiohead/Pyramid Song [SINGLE] #2'
p532
tp533
a(S'/Users/cole/Music/iTunes/iTunes Media/Music/Boards of Canada/Unknown Album'
p534
tp535
a(S'/Users/cole/Music/iTunes/iTunes Media/Music/Little People/Mickey Mouse Operation'
p536
tp537
a(S'/Users/cole/Music/iTunes/iTunes Media/Music/Willits + Sakamoto/Ancient Future'
p538
tp539
a(S'/Users/cole/Music/iTunes/iTunes Media/Music/Near The Parenthesis/Of Soft Construction'
p540
tp541
a(S'/Users/cole/Music/iTunes/iTunes Media/Music/Boards of Canada/Peel Session'
p542
tp543
a(S'/Users/cole/Music/iTunes/iTunes Media/Music/Air/Premiers Sympto\xcc\x82mes'
p544
tp545
a(S'/Users/cole/Music/iTunes/iTunes Media/Music/Lone/Galaxy Garden'
p546
tp547
a(S'/Users/cole/Music/iTunes/iTunes Media/Music/Will Dutta with Plaid/Parergon'
p548
tp549
a(S'/Users/cole/Music/iTunes/iTunes Media/Music/Lone/Airglow Fires _ Begin to Begin'
p550
tp551
a(S'/Users/cole/Music/iTunes/iTunes Media/Music/Explosions In The Sky/How Strange, Innocence'
p552
tp553
a(S'/Users/cole/Music/iTunes/iTunes Media/Music/Boards of Canada/The Campfire Headphase'
p554
tp555
a(S'/Users/cole/Music/iTunes/iTunes Media/Music/Machinedrum/Many Faces LP'
p556
tp557
a(S'/Users/cole/Music/iTunes/iTunes Media/Music/Explosions In The Sky/Those Who Tell the Truth Shall Die, Those Who Tell the Truth Shall Live Forever'
p558
tp559
a(S'/Users/cole/Music/iTunes/iTunes Media/Music/Bruno Sanfilippo/Aftermath of a quantum nature'
p560
tp561
a(S'/Users/cole/Music/iTunes/iTunes Media/Music/AFX/Chosen Lords'
p562
tp563
a(S'/Users/cole/Music/iTunes/iTunes Media/Music/Compilations/Reich_ Different Trains, Electric Counterpoint'
p564
tp565
a(S'/Users/cole/Music/iTunes/iTunes Media/Music/Dntel/Dumb Luck'
p566
tp567
a(S'/Users/cole/Music/iTunes/iTunes Media/Music/Conelrad/Function Creep'
p568
tp569
a(S'/Users/cole/Music/iTunes/iTunes Media/Music/Ochre/A Midsummer Nice Dream'
p570
tp571
a(S'/Users/cole/Music/iTunes/iTunes Media/Music/Mrs Jynx/Shark Carousel'
p572
tp573
a(S'/Users/cole/Music/iTunes/iTunes Media/Music/Caribou/Up In Flames (Special Edition)'
p574
tp575
a(S'/Users/cole/Music/iTunes/iTunes Media/Music/Autechre/Peel Session 2 08_09_99'
p576
tp577
a(S'/Users/cole/Music/iTunes/iTunes Media/Music/Aphex Twin/Aphex Twin-26 Mixes For Cash-C'
p578
tp579
a(S'/Users/cole/Music/iTunes/iTunes Media/Music/Tim Hecker/Harmony in Ultraviolet'
p580
tp581
a(S'/Users/cole/Music/iTunes/iTunes Media/Music/Amon Tobin/Verbal Remixes And Collaborati'
p582
tp583
a(S'/Users/cole/Music/iTunes/iTunes Media/Music/Phiadra/Dance Music Manual 2nd Edition'
p584
tp585
a(S'/Users/cole/Music/iTunes/iTunes Media/Music/humate/Northern Exposure 2 - Westcoast Edition'
p586
tp587
a(S'/Users/cole/Music/iTunes/iTunes Media/Music/Yimino/Breaker'
p588
tp589
a(S'/Users/cole/Music/iTunes/iTunes Media/Music/Black Dog Productions/Bytes'
p590
tp591
a(S'/Users/cole/Music/iTunes/iTunes Media/Music/Ulrich Schnauss/A Long Way to Fall'
p592
tp593
a(S'/Users/cole/Music/iTunes/iTunes Media/Music/Link'
p594
S'/Users/cole/Music/iTunes/iTunes Media/Music/Link/Warp 10+3 Remixes (Disc 1)'
p595
tp596
a(S'/Users/cole/Music/iTunes/iTunes Media/Music/Teen Daze/All of Us, Together'
p597
tp598
a(S'/Users/cole/Music/iTunes/iTunes Media/Music/The Postal Service/Give Up'
p599
tp600
a(S'/Users/cole/Music/iTunes/iTunes Media/Music/Flying Lotus/Until The Quiet Comes'
p601
tp602
a(S'/Users/cole/Music/iTunes/iTunes Media/Music/Balmorhea/For Nihon'
p603
tp604
a(S'/Users/cole/Music/iTunes/iTunes Media/Music/Lone/Reality Testing'
p605
tp606
a(S'/Users/cole/Music/iTunes/iTunes Media/Music/The Avalanches/Since I Left You'
p607
tp608
a(S'/Users/cole/Music/iTunes/iTunes Media/Music/Casino Versus Japan/Whole Numbers Play the Basics'
p609
tp610
a(S'/Users/cole/Music/iTunes/iTunes Media/Music/Shlohmo/Bad Vibes'
p611
tp612
a(S'/Users/cole/Music/iTunes/iTunes Media/Music/Memoryhouse/The Slideshow Effect'
p613
tp614
a(S'/Users/cole/Music/iTunes/iTunes Media/Music/Krusseldorf/Fractal World'
p615
tp616
a(S'/Users/cole/Music/iTunes/iTunes Media/Music/Ulrich Schnauss & Mark Peters/Underrated Silence'
p617
tp618
a(S'/Users/cole/Music/iTunes/iTunes Media/Music/Dntel/Aimlessness'
p619
tp620
a(S'/Users/cole/Music/iTunes/iTunes Media/Music/Darshan Ambient/Little Things'
p621
tp622
a(S'/Users/cole/Music/iTunes/iTunes Media/Music/Compilations/An Ominim Family Christmas'
p623
tp624
a(S'/Users/cole/Music/iTunes/iTunes Media/Music/Yimino/Archive III'
p625
tp626
a(S'/Users/cole/Music/iTunes/iTunes Media/Music/Aphex Twin/Richard D. James Album'
p627
tp628
a(S'/Users/cole/Music/iTunes/iTunes Media/Music/Ruxpin/Avalon'
p629
tp630
a(S'/Users/cole/Music/iTunes/iTunes Media/Music/Giraffage/Needs'
p631
tp632
a(S'/Users/cole/Music/iTunes/iTunes Media/Music/Radiohead/Kid A'
p633
tp634
a(S'/Users/cole/Music/iTunes/iTunes Media/Music/Radiohead/There There CDS'
p635
tp636
a(S'/Users/cole/Music/iTunes/iTunes Media/Music/Boards of Canada/Boards of Canada old website'
p637
tp638
a(S'/Users/cole/Music/iTunes/iTunes Media/Music/Kuedo/Severant'
p639
tp640
a(S'/Users/cole/Music/iTunes/iTunes Media/Music/Kettel/Myam James 1'
p641
tp642
a(S'/Users/cole/Music/iTunes/iTunes Media/Music/FaltyDL/Hardcourage'
p643
tp644
a(S'/Users/cole/Music/iTunes/iTunes Media/Music/Aphex Twin/Selected Ambient Works, Volume II'
p645
tp646
a(S"/Users/cole/Music/iTunes/iTunes Media/Music/Boards of Canada/2001-04-07_ All Tomorrow's Parties, East Sussex, UK"
p647
tp648
a(S'/Users/cole/Music/iTunes/iTunes Media/Music/Jega/Geometry'
p649
tp650
a(S'/Users/cole/Music/iTunes/iTunes Media/Music/Radiohead/Go To Sleep [SINGLE] #2'
p651
tp652
a(S'/Users/cole/Music/iTunes/iTunes Media/Music/Boards of Canada/2000-10-14_ The Incredible Warp Light House Party, London, UK'
p653
tp654
a(S'/Users/cole/Music/iTunes/iTunes Media/Music/Bola/Soup'
p655
tp656
a(S'/Users/cole/Music/iTunes/iTunes Media/Music/Luke Abbott/Wysing Forest'
p657
tp658
a(S'/Users/cole/Music/iTunes/iTunes Media/Music/The American Dollar/Ambient Three'
p659
tp660
a(S'/Users/cole/Music/iTunes/iTunes Media/Music/Ulrich Schnauss/Goodbye'
p661
tp662
a(S'/Users/cole/Music/iTunes/iTunes Media/Music/Tycho/Awake'
p663
tp664
a(S'/Users/cole/Music/iTunes/iTunes Media/Music/KiloWatts/Problems_Solved'
p665
tp666
a(S'/Users/cole/Music/iTunes/iTunes Media/Music/Jacob 2-2/Under The Mountain compilation [ISO50 Exclusive]'
p667
tp668
a(S'/Users/cole/Music/iTunes/iTunes Media/Music/Jackson And His Computerband/Glow'
p669
tp670
a(S'/Users/cole/Music/iTunes/iTunes Media/Music/KiloWatts/Problem_Solving'
p671
tp672
a(S'/Users/cole/Music/iTunes/iTunes Media/Music/Tim Hecker/Ravedeath, 1972'
p673
tp674
a(S'/Users/cole/Music/iTunes/iTunes Media/Music/LFO/Warp 10+3 Remixes (Disc 1)'
p675
S'/Users/cole/Music/iTunes/iTunes Media/Music/LFO/Warp 10+3 Remixes (Disc 2)'
p676
tp677
a(S"/Users/cole/Music/iTunes/iTunes Media/Music/Near The Parenthesis/L'Eixample"
p678
tp679
a(S'/Users/cole/Music/iTunes/iTunes Media/Music/Ilkae/Pistachio Island'
p680
tp681
a(S'/Users/cole/Music/iTunes/iTunes Media/Music/Bvdub/Strength In Solitude LP'
p682
tp683
a(S'/Users/cole/Music/iTunes/iTunes Media/Music/Yimino/Bulbuss'
p684
tp685
a(S'/Users/cole/Music/iTunes/iTunes Media/Music/Boards of Canada/Remixes and Others'
p686
tp687
a(S'/Users/cole/Music/iTunes/iTunes Media/Music/Aphex Twin/saw2 reworked'
p688
tp689
a(S'/Users/cole/Music/iTunes/iTunes Media/Music/Plaid/Reachy Prints'
p690
tp691
a(S'/Users/cole/Music/iTunes/iTunes Media/Music/humate/Northern Exposure - Expedition 2'
p692
tp693
a(S'/Users/cole/Music/iTunes/iTunes Media/Music/Radiohead/High and Dry [SINGLE] #1'
p694
tp695
a(S'/Users/cole/Music/iTunes/iTunes Media/Music/Christ_/Metamorphic Reproduction Miracle'
p696
tp697
a(S'/Users/cole/Music/iTunes/iTunes Media/Music/The Orb/Cydonia'
p698
tp699
a(S'/Users/cole/Music/iTunes/iTunes Media/Music/Telefon Tel Aviv/Remixes Compiled'
p700
tp701
a(S'/Users/cole/Music/iTunes/iTunes Media/Music/B. Fleischmann/The Humbucking Coil'
p702
tp703
a(S'/Users/cole/Music/iTunes/iTunes Media/Music/Squarepusher/Numbers Luscent'
p704
tp705
a(S'/Users/cole/Music/iTunes/iTunes Media/Music/Shigeto/Lineage'
p706
tp707
a(S'/Users/cole/Music/iTunes/iTunes Media/Music/Am-Boy/Horrible Oracle Blessedness'
p708
tp709
a(S'/Users/cole/Music/iTunes/iTunes Media/Music/Syndrone/Salmataxia'
p710
tp711
a(S'/Users/cole/Music/iTunes/iTunes Media/Music/Near The Parenthesis/Music for the Forest Concourse'
p712
tp713
a(S'/Users/cole/Music/iTunes/iTunes Media/Music/loscil/coast_range_arc'
p714
tp715
a(S'/Users/cole/Music/iTunes/iTunes Media/Music/Daedelus & Jogger/Friends of Friends Volume 1'
p716
tp717
a(S'/Users/cole/Music/iTunes/iTunes Media/Music/Airiel/The Battle of Sealand'
p718
tp719
a(S'/Users/cole/Music/iTunes/iTunes Media/Music/Actress/R.I.P_'
p720
tp721
a(S'/Users/cole/Music/iTunes/iTunes Media/Music/Chris Clark/Turning Dragon'
p722
tp723
a(S'/Users/cole/Music/iTunes/iTunes Media/Music/Banco de Gaia/Northern Exposure'
p724
tp725
a(S'/Users/cole/Music/iTunes/iTunes Media/Music/Deastro/Moondagger'
p726
tp727
a(S'/Users/cole/Music/iTunes/iTunes Media/Music/bjork/Post'
p728
tp729
a(S'/Users/cole/Music/iTunes/iTunes Media/Music/Boards of Canada/Music Has the Right to Children'
p730
tp731
a(S'/Users/cole/Music/iTunes/iTunes Media/Music/Beautiful Bells/Managing Depth'
p732
tp733
a(S'/Users/cole/Music/iTunes/iTunes Media/Music/Aphex Twin/Unknown Album'
p734
tp735
a(S'/Users/cole/Music/iTunes/iTunes Media/Music/Ops Esponja/Secret Station - Broadcast Four'
p736
tp737
a(S'/Users/cole/Music/iTunes/iTunes Media/Music/Caribou/Our Love'
p738
tp739
a(S'/Users/cole/Music/iTunes/iTunes Media/Music/Chachi Jones/Dymaxion Daydream'
p740
tp741
a(S'/Users/cole/Music/iTunes/iTunes Media/Music/Madrid/Warm Waters'
p742
tp743
a(S'/Users/cole/Music/iTunes/iTunes Media/Music/Airiel/Kid Games'
p744
tp745
a(S'/Users/cole/Music/iTunes/iTunes Media/Music/Jon Hopkins/Contact Note'
p746
tp747
a(S'/Users/cole/Music/iTunes/iTunes Media/Music/Chemical Brothers/Come With Us'
p748
tp749
a(S'/Users/cole/Music/iTunes/iTunes Media/Music/Oneohtrix Point Never/Returnal'
p750
tp751
a(S'/Users/cole/Music/iTunes/iTunes Media/Music/Georg Neufeld/[gruen003] Lakeside'
p752
tp753
a(S'/Users/cole/Music/iTunes/iTunes Media/Music/Compilations/So Soon'
p754
tp755
a(S'/Users/cole/Music/iTunes/iTunes Media/Music/Chemical Brothers/Unknown Album'
p756
tp757
a(S"/Users/cole/Music/iTunes/iTunes Media/Music/Compilations/Auntie Aubrey's Excursions Beyond The Call of Duty Part 2 US (Disc 1)"
p758
S"/Users/cole/Music/iTunes/iTunes Media/Music/Compilations/Auntie Aubrey's Excursions Beyond The Call of Duty Part 2 US (Disc 2)"
p759
tp760
a(S'/Users/cole/Music/iTunes/iTunes Media/Music/Mr. Oizo/The Church'
p761
tp762
a(S'/Users/cole/Music/iTunes/iTunes Media/Music/Max Richter/For Nihon'
p763
tp764
a(S'/Users/cole/Music/iTunes/iTunes Media/Music/Amman Abbasi/For Nihon'
p765
tp766
a(S'/Users/cole/Music/iTunes/iTunes Media/Music/Nils Frahm & Anne Muller/For Nihon'
p767
tp768
a(S'/Users/cole/Music/iTunes/iTunes Media/Music/Fenton/Pup'
p769
tp770
a(S'/Users/cole/Music/iTunes/iTunes Media/Music/Taylor Deupree/For Nihon'
p771
tp772
a(S'/Users/cole/Music/iTunes/iTunes Media/Music/Ametsub/All Is Silence'
p773
tp774
a(S'/Users/cole/Music/iTunes/iTunes Media/Music/The Future Sound Of London/Lifeforms (Disc 1)'
p775
S'/Users/cole/Music/iTunes/iTunes Media/Music/The Future Sound Of London/Lifeforms (Disc 2)'
p776
tp777
a(S'/Users/cole/Music/iTunes/iTunes Media/Music/Philip Glass/Koyaanisqatsi'
p778
tp779
a(S'/Users/cole/Music/iTunes/iTunes Media/Music/Max Corbacho/Aftermath of a quantum nature'
p780
tp781
a(S'/Users/cole/Music/iTunes/iTunes Media/Music/Stereolab/Transient Random-Noise Bursts With Announcements'
p782
tp783
a(S'/Users/cole/Music/iTunes/iTunes Media/Music/Ulrich Schnauss And Mark Peters/Tomorrow Is Another Day'
p784
tp785
a(S'/Users/cole/Music/iTunes/iTunes Media/Music/Near The Parenthesis/The Near Pairing Thesis'
p786
tp787
a(S'/Users/cole/Music/iTunes/iTunes Media/Music/Autechre/Quaristice'
p788
tp789
a(S'/Users/cole/Music/iTunes/iTunes Media/Music/Bop/The Amazing Adventures of One Curious Pixel'
p790
tp791
a(S'/Users/cole/Music/iTunes/iTunes Media/Music/Battles/Mirrored'
p792
tp793
a(S'/Users/cole/Music/iTunes/iTunes Media/Music/Ulrich Schnauss/Far Away Trains Passing By'
p794
tp795
a(S'/Users/cole/Music/iTunes/iTunes Media/Music/Squarepusher/Warp 10+3 Remixes (Disc 2)'
p796
tp797
a(S'/Users/cole/Music/iTunes/iTunes Media/Music/Seefeel/Quique (Redux Edition)'
p798
tp799
a(S'/Users/cole/Music/iTunes/iTunes Media/Music/Casino Versus Japan/Go Hawaii'
p800
tp801
a(S'/Users/cole/Music/iTunes/iTunes Media/Music/Compilations/Different Trains, Electric Counterpoint'
p802
tp803
a(S'/Users/cole/Music/iTunes/iTunes Media/Music/Apollo 440/Northern Exposure'
p804
tp805
a(S'/Users/cole/Music/iTunes/iTunes Media/Music/Conelrad/sky is falling ep'
p806
tp807
a(S'/Users/cole/Music/iTunes/iTunes Media/Music/Winterlight/Hope Dies Last'
p808
tp809
a(S'/Users/cole/Music/iTunes/iTunes Media/Music/KiloWatts/The Right Words'
p810
tp811
a(S'/Users/cole/Music/iTunes/iTunes Media/Music/Brian Eno/LUX'
p812
tp813
a(S'/Users/cole/Music/iTunes/iTunes Media/Music/Mr Oizo/Lambs Anger'
p814
tp815
a(S'/Users/cole/Music/iTunes/iTunes Media/Music/Carbon Based Lifeforms/Hydroponic Garden'
p816
tp817
a(S'/Users/cole/Music/iTunes/iTunes Media/Music/Ochre/Early Learning'
p818
tp819
a(S'/Users/cole/Music/iTunes/iTunes Media/Music/Aphex Twin/Come to Daddy'
p820
tp821
a(S'/Users/cole/Music/iTunes/iTunes Media/Music/Orange Crush/Autumn Reflections'
p822
tp823
a(S'/Users/cole/Music/iTunes/iTunes Media/Music/KILN/Ampday'
p824
tp825
a(S'/Users/cole/Music/iTunes/iTunes Media/Music/Jap Jap/Shapes Are EP'
p826
tp827
a(S'/Users/cole/Music/iTunes/iTunes Media/Music/Chemical Brothers/The Golden Path (Promo)'
p828
tp829
a(S'/Users/cole/Music/iTunes/iTunes Media/Music/KiloWatts/Six Silicates'
p830
tp831
a(S'/Users/cole/Music/iTunes/iTunes Media/Music/Caribou/Start Breaking My Heart'
p832
tp833
a(S'/Users/cole/Music/iTunes/iTunes Media/Music/Radiohead/Street Spirit (Fade Out) (Disc 1)'
p834
S'/Users/cole/Music/iTunes/iTunes Media/Music/Radiohead/Street Spirit (Fade Out) (Disc 2)'
p835
tp836
a(S'/Users/cole/Music/iTunes/iTunes Media/Music/The Sight Below/It All Falls Apart'
p837
tp838
a(S'/Users/cole/Music/iTunes/iTunes Media/Music/Jon Hopkins/Immunity'
p839
tp840
a(S'/Users/cole/Music/iTunes/iTunes Media/Music/Mouse On Mars/Niun Niggung'
p841
tp842
a(S'/Users/cole/Music/iTunes/iTunes Media/Music/Samiyam/Rap Beats, Volume 1'
p843
tp844
a(S'/Users/cole/Music/iTunes/iTunes Media/Music/Modeselektor Feat. Paul St. Hillaire/Hello Mom!'
p845
tp846
a(S'/Users/cole/Music/iTunes/iTunes Media/Music/Foxes In Fiction/Swung from the Branches'
p847
tp848
a(S'/Users/cole/Music/iTunes/iTunes Media/Music/Two Lone Swordsmen'
p849
S'/Users/cole/Music/iTunes/iTunes Media/Music/Two Lone Swordsmen/Warp 10+3 Remixes (Disc 2)'
p850
tp851
a(S'/Users/cole/Music/iTunes/iTunes Media/Music/The Chemical Brothers/Push The Button'
p852
tp853
a(S'/Users/cole/Music/iTunes/iTunes Media/Music/Stellardrone/A Moment Of Stillness'
p854
tp855
a(S"/Users/cole/Music/iTunes/iTunes Media/Music/Dauwd/What's There"
p856
tp857
a(S'/Users/cole/Music/iTunes/iTunes Media/Music/Various Artists/Pop Ambient 2011'
p858
tp859
a(S'/Users/cole/Music/iTunes/iTunes Media/Music/Blanck Mass/Blanck Mass'
p860
tp861
a(S'/Users/cole/Music/iTunes/iTunes Media/Music/Conelrad/test 1'
p862
tp863
a(S'/Users/cole/Music/iTunes/iTunes Media/Music/marcia blaine school for girls/Eponymous EP'
p864
tp865
a(S'/Users/cole/Music/iTunes/iTunes Media/Music/Lone/Emerald Fantasy Tracks'
p866
tp867
a(S'/Users/cole/Music/iTunes/iTunes Media/Music/Amon Tobin/Isam'
p868
tp869
a(S'/Users/cole/Music/iTunes/iTunes Media/Music/Aphex Twin/On Remixes'
p870
tp871
a(S'/Users/cole/Music/iTunes/iTunes Media/Music/Near The Parenthesis/Of Soft Costruction'
p872
tp873
a(S'/Users/cole/Music/iTunes/iTunes Media/Music/The Death Set/MFDS'
p874
tp875
a(S'/Users/cole/Music/iTunes/iTunes Media/Music/A Sunny Day In Glasgow/Sea When Absent'
p876
tp877
a(S'/Users/cole/Music/iTunes/iTunes Media/Music/The American Dollar/Ambient Two'
p878
tp879
a(S'/Users/cole/Music/iTunes/iTunes Media/Music/TRANSA/Northern Exposure 2 - Westcoast Edition'
p880
tp881
a(S'/Users/cole/Music/iTunes/iTunes Media/Music/Autechre/Cavity Job'
p882
tp883
a(S'/Users/cole/Music/iTunes/iTunes Media/Music/Kilowatts and Vanek/Rawq'
p884
tp885
a(S'/Users/cole/Music/iTunes/iTunes Media/Music/Robin Guthrie & Harold Budd/For Nihon'
p886
tp887
a(S'/Users/cole/Music/iTunes/iTunes Media/Music/Mux Mool/Skulltaste'
p888
tp889
a(S'/Users/cole/Music/iTunes/iTunes Media/Music/Aphex Twin/\xe2\x80\xa6I Care Because You Do'
p890
tp891
a(S'/Users/cole/Music/iTunes/iTunes Media/Music/The Flashbulb/Re\xcc\x81union'
p892
tp893
a(S'/Users/cole/Music/iTunes/iTunes Media/Music/Rafael Anton Irisarri & Goldmund/For Nihon'
p894
tp895
a(S'/Users/cole/Music/iTunes/iTunes Media/Music/Radiohead/Karma Police (Single)'
p896
tp897
a(S'/Users/cole/Music/iTunes/iTunes Media/Music/Ochre/Like Dust of the Balance'
p898
tp899
a(S'/Users/cole/Music/iTunes/iTunes Media/Music/Girl Talk/Feed The Animals'
p900
tp901
a(S'/Users/cole/Music/iTunes/iTunes Media/Music/Bola/Mauver'
p902
tp903
a(S'/Users/cole/Music/iTunes/iTunes Media/Music/Caribou/Start Breaking My Heart (Special Edition)'
p904
tp905
a(S'/Users/cole/Music/iTunes/iTunes Media/Music/Young American Primitive/Northern Exposure'
p906
tp907
a(S'/Users/cole/Music/iTunes/iTunes Media/Music/Autechre/Exai'
p908
tp909
a(S'/Users/cole/Music/iTunes/iTunes Media/Music/Squarepusher/Ultravisitor'
p910
tp911
a(S'/Users/cole/Music/iTunes/iTunes Media/Music/Radiohead/Ok Computer-Amnesiac B-sides'
p912
tp913
a(S'/Users/cole/Music/iTunes/iTunes Media/Music/Helios/Ayres'
p914
tp915
a(S'/Users/cole/Music/iTunes/iTunes Media/Music/Plaid/Rest Proof Clockwork'
p916
tp917
a(S'/Users/cole/Music/iTunes/iTunes Media/Music/Ulrich Schnauss/Missing Deadlines - Selected Remixes'
p918
tp919
a(S'/Users/cole/Music/iTunes/iTunes Media/Music/Synthetrix/Synthetrix Plays The Music Of Boards Of Canada'
p920
tp921
a(S'/Users/cole/Music/iTunes/iTunes Media/Music/Boards of Canada/A Few Old Tunes Vol.2'
p922
tp923
a(S'/Users/cole/Music/iTunes/iTunes Media/Music/Mr Copy/Minerva'
p924
tp925
a(S'/Users/cole/Music/iTunes/iTunes Media/Music/Alva Noto/For Nihon'
p926
tp927
a(S'/Users/cole/Music/iTunes/iTunes Media/Music/Goldmund/For Nihon'
p928
tp929
a(S'/Users/cole/Music/iTunes/iTunes Media/Music/Teen Daze/A Silent Planet'
p930
tp931
a(S'/Users/cole/Music/iTunes/iTunes Media/Music/loscil/First Narrows'
p932
tp933
a(S'/Users/cole/Music/iTunes/iTunes Media/Music/Aphex Twin/Selected Ambient Works 85-92'
p934
tp935
a(S'/Users/cole/Music/iTunes/iTunes Media/Music/Pixies/Surfer Rosa'
p936
tp937
a(S'/Users/cole/Music/iTunes/iTunes Media/Music/Lone/Ecstasy & Friends'
p938
tp939
a(S'/Users/cole/Music/iTunes/iTunes Media/Music/Aphex Twin/Donkey Rhubarb'
p940
tp941
a(S'/Users/cole/Music/iTunes/iTunes Media/Music/Boards of Canada/Parallel Universe #1'
p942
tp943
a(S'/Users/cole/Music/iTunes/iTunes Media/Music/Boards of Canada/Boc Maxima'
p944
tp945
a(S'/Users/cole/Music/iTunes/iTunes Media/Music/Boards of Canada/Twoism'
p946
tp947
a(S'/Users/cole/Music/iTunes/iTunes Media/Music/Stereolab/Emperor Tomato Ketchup'
p948
tp949
a(S'/Users/cole/Music/iTunes/iTunes Media/Music/Ulrich Schnauss And Mark Peters/Underrated Silence'
p950
tp951
a(S'/Users/cole/Music/iTunes/iTunes Media/Music/Signaldrift/Two Agents'
p952
tp953
a(S'/Users/cole/Music/iTunes/iTunes Media/Music/Colin Kenniff featuring Hollie Kenniff/For Nihon'
p954
tp955
a(S'/Users/cole/Music/iTunes/iTunes Media/Music/Ryan Teague/For Nihon'
p956
tp957
a(S'/Users/cole/Music/iTunes/iTunes Media/Music/AFX/Analog Bubblebath, Volume 2'
p958
tp959
a(S'/Users/cole/Music/iTunes/iTunes Media/Music/Radiohead/Hail To The Thief'
p960
tp961
a(S'/Users/cole/Music/iTunes/iTunes Media/Music/Radiohead/Go To Sleep [SINGLE] #1'
p962
tp963
a(S'/Users/cole/Music/iTunes/iTunes Media/Music/Modeselektor Feat. Sacha Perera/Hello Mom!'
p964
tp965
a(S'/Users/cole/Music/iTunes/iTunes Media/Music/The Crystal Method/Vegas'
p966
tp967
a(S'/Users/cole/Music/iTunes/iTunes Media/Music/Dntel/Life Is Full of Possibilities'
p968
tp969
a(S'/Users/cole/Music/iTunes/iTunes Media/Music/Kashiwa Daisuke/9 Songs'
p970
tp971
a(S'/Users/cole/Music/iTunes/iTunes Media/Music/Kites/Northern Exposure'
p972
tp973
a(S'/Users/cole/Music/iTunes/iTunes Media/Music/Yppah/They Know What Ghost Know'
p974
tp975
a(S'/Users/cole/Music/iTunes/iTunes Media/Music/Boards of Canada/Trans Canada Highway'
p976
tp977
a(S'/Users/cole/Music/iTunes/iTunes Media/Music/Squarepusher/Hello Everything'
p978
tp979
a(S'/Users/cole/Music/iTunes/iTunes Media/Music/Isole\xcc\x81e/We Are Monster'
p980
tp981
a(S'/Users/cole/Music/iTunes/iTunes Media/Music/Delta Lady/Northern Exposure - Expedition 2'
p982
tp983
a(S'/Users/cole/Music/iTunes/iTunes Media/Music/Stellardrone/Echoes'
p984
tp985
a(S'/Users/cole/Music/iTunes/iTunes Media/Music/Last Days/For Nihon'
p986
tp987
a(S'/Users/cole/Music/iTunes/iTunes Media/Music/Sepalcure/Sepalcure'
p988
tp989
a(S'/Users/cole/Music/iTunes/iTunes Media/Music/Stereolab/Cobra & Phases Play Voltage in the Milky Night [Import Bonus Tracks]'
p990
tp991
a(S'/Users/cole/Music/iTunes/iTunes Media/Music/Chemical Brothers/Music Response Special U.S. Edition'
p992
tp993
a(S'/Users/cole/Music/iTunes/iTunes Media/Music/Radiohead/Fake Plastic Trees (Single)'
p994
tp995
a(S'/Users/cole/Music/iTunes/iTunes Media/Music/Teebs/Ardour'
p996
tp997
a(S'/Users/cole/Music/iTunes/iTunes Media/Music/Radiohead/High & Dry Planet Telex (Disc 1)'
p998
tp999
a(S'/Users/cole/Music/iTunes/iTunes Media/Music/Winks & Kisses/Frosted'
p1000
tp1001
a(S'/Users/cole/Music/iTunes/iTunes Media/Music/Breeder/Northern Exposure - Expedition 2'
p1002
tp1003
a(S'/Users/cole/Music/iTunes/iTunes Media/Music/Portishead And Massive Attack/Unknown Album'
p1004
tp1005
a(S'/Users/cole/Music/iTunes/iTunes Media/Music/Beck/Guero'
p1006
tp1007
a(S'/Users/cole/Music/iTunes/iTunes Media/Music/Synthetrix/Avant Savage'
p1008
tp1009
a(S'/Users/cole/Music/iTunes/iTunes Media/Music/Mr. Oizo/Moustache (Half A Scissor)'
p1010
tp1011
a(S'/Users/cole/Music/iTunes/iTunes Media/Music/Machinedrum/Vapor City'
p1012
tp1013
a(S'/Users/cole/Music/iTunes/iTunes Media/Music/Radiohead/Drill EP'
p1014
tp1015
a(S'/Users/cole/Music/iTunes/iTunes Media/Music/Clem Leek/For Nihon'
p1016
tp1017
a(S'/Users/cole/Music/iTunes/iTunes Media/Music/Chris Clark/Iradelphic'
p1018
tp1019
a(S'/Users/cole/Music/iTunes/iTunes Media/Music/Yppah/You Are Beautiful At All Times'
p1020
tp1021
a(S'/Users/cole/Music/iTunes/iTunes Media/Music/Radiohead/Itch'
p1022
tp1023
a(S'/Users/cole/Music/iTunes/iTunes Media/Music/Elektromodule/Secret Station - Broadcast Four'
p1024
tp1025
a(S'/Users/cole/Music/iTunes/iTunes Media/Music/Darshan Ambient/A Day Within Days'
p1026
tp1027
a(S'/Users/cole/Music/iTunes/iTunes Media/Music/Keaver & Brause/The Middle Way'
p1028
tp1029
a(S'/Users/cole/Music/iTunes/iTunes Media/Music/arovane/ve palor'
p1030
tp1031
a(S'/Users/cole/Music/iTunes/iTunes Media/Music/Plaid/The Carp And The Seagull OST'
p1032
tp1033
a(S'/Users/cole/Music/iTunes/iTunes Media/Music/Kelpe/Ex-aquarium'
p1034
tp1035
a(S'/Users/cole/Music/iTunes/iTunes Media/Music/Autechre/Draft 7.30'
p1036
tp1037
a(S'/Users/cole/Music/iTunes/iTunes Media/Music/Proem/Socially Inept'
p1038
tp1039
a(S'/Users/cole/Music/iTunes/iTunes Media/Music/Preghost/Ghost Story'
p1040
tp1041
a(S'/Users/cole/Music/iTunes/iTunes Media/Music/Alessandro Cortini/Sonno'
p1042
tp1043
a(S'/Users/cole/Music/iTunes/iTunes Media/Music/Isan/Plans Drawn In Pencil'
p1044
tp1045
a(S'/Users/cole/Music/iTunes/iTunes Media/Music/The Seven Fields of Aphelion/Periphery'
p1046
tp1047
a(S'/Users/cole/Music/iTunes/iTunes Media/Music/Boards of Canada/Website Tracks'
p1048
tp1049
a(S"/Users/cole/Music/iTunes/iTunes Media/Music/L'usine/Iron City"
p1050
tp1051
a(S'/Users/cole/Music/iTunes/iTunes Media/Music/Nathan Fake/Steam Days'
p1052
tp1053
a(S'/Users/cole/Music/iTunes/iTunes Media/Music/Various Artists/Warp20 (Recreated)'
p1054
tp1055
a(S'/Users/cole/Music/iTunes/iTunes Media/Music/Rustie/Glass Swords'
p1056
tp1057
a(S'/Users/cole/Music/iTunes/iTunes Media/Music/Chris Clark/Empty the Bones of You'
p1058
tp1059
a(S'/Users/cole/Music/iTunes/iTunes Media/Music/bjork/Vespertine'
p1060
tp1061
a(S'/Users/cole/Music/iTunes/iTunes Media/Music/Rumpistol/Rumpistol'
p1062
tp1063
a(S'/Users/cole/Music/iTunes/iTunes Media/Music/Helios/Eingya'
p1064
tp1065
a(S'/Users/cole/Music/iTunes/iTunes Media/Music/Autechre/Cichlisuite'
p1066
tp1067
a(S'/Users/cole/Music/iTunes/iTunes Media/Music/Dorian Concept/When Planets Explode'
p1068
tp1069
a(S'/Users/cole/Music/iTunes/iTunes Media/Music/Memoryhouse/The Years EP'
p1070
tp1071
a(S'/Users/cole/Music/iTunes/iTunes Media/Music/Cokiyu/For Nihon'
p1072
tp1073
a(S'/Users/cole/Music/iTunes/iTunes Media/Music/Ten and Tracer/April Kids'
p1074
tp1075
a(S'/Users/cole/Music/iTunes/iTunes Media/Music/Boards of Canada/In a Beautiful Place Out in the Country'
p1076
tp1077
a(S'/Users/cole/Music/iTunes/iTunes Media/Music/Tricky Disco'
p1078
S'/Users/cole/Music/iTunes/iTunes Media/Music/Tricky Disco/Warp 10+3 Remixes (Disc 2)'
p1079
tp1080
a(S'/Users/cole/Music/iTunes/iTunes Media/Music/Arms and Sleepers/For Nihon'
p1081
tp1082
a(S'/Users/cole/Music/iTunes/iTunes Media/Music/The Flashbulb/Flexing Habitual'
p1083
tp1084
a(S'/Users/cole/Music/iTunes/iTunes Media/Music/William Orbit/Northern Exposure'
p1085
tp1086
a(S'/Users/cole/Music/iTunes/iTunes Media/Music/Brian Eno/Small Craft On A Milk Sea'
p1087
tp1088
a(S'/Users/cole/Music/iTunes/iTunes Media/Music/Air/Premier symptomes'
p1089
tp1090
a(S'/Users/cole/Music/iTunes/iTunes Media/Music/Four Tet/Everything Ecstatic'
p1091
tp1092
a(S'/Users/cole/Music/iTunes/iTunes Media/Music/The American Dollar/The Technicolour Sleep'
p1093
tp1094
a(S'/Users/cole/Music/iTunes/iTunes Media/Music/The American Dollar/From The Inland Sea'
p1095
tp1096
a(S'/Users/cole/Music/iTunes/iTunes Media/Music/Fennesz/Endless Summer'
p1097
tp1098
a(S'/Users/cole/Music/iTunes/iTunes Media/Music/Dntel/(This Is) The Dream of Evan and Chan'
p1099
tp1100
a(S'/Users/cole/Music/iTunes/iTunes Media/Music/The Flashbulb/Opus at the End of Everything'
p1101
tp1102
a(S'/Users/cole/Music/iTunes/iTunes Media/Music/gas/Nah Und Fern'
p1103
tp1104
a(S'/Users/cole/Music/iTunes/iTunes Media/Music/Boards of Canada/Boardsofcanada.com 2002-2005'
p1105
tp1106
a(S'/Users/cole/Music/iTunes/iTunes Media/Music/Stereolab/Margerine Eclipse'
p1107
tp1108
a(S'/Users/cole/Music/iTunes/iTunes Media/Music/Autechre/Chiastic Slide'
p1109
tp1110
a(S'/Users/cole/Music/iTunes/iTunes Media/Music/Helios/Unomia'
p1111
tp1112
a(S'/Users/cole/Music/iTunes/iTunes Media/Music/Stars of the Lid/Stars of the Lid and Their Refinement of the Decline'
p1113
tp1114
a(S"/Users/cole/Music/iTunes/iTunes Media/Music/Apparat/The Devil's Walk"
p1115
tp1116
a(S'/Users/cole/Music/iTunes/iTunes Media/Music/Ashra/New Age Of Earth'
p1117
tp1118
a(S'/Users/cole/Music/iTunes/iTunes Media/Music/Minibosses/The Minibosses'
p1119
tp1120
a(S'/Users/cole/Music/iTunes/iTunes Media/Music/Black Moth Super Rainbow/Dandelion Gum'
p1121
tp1122
a(S'/Users/cole/Music/iTunes/iTunes Media/Music/Tim Hecker/Haunt Me'
p1123
tp1124
a(S'/Users/cole/Music/iTunes/iTunes Media/Music/Guillermo Scott Herren/Sleeping On Saturday And Sunday Afternoon'
p1125
tp1126
a(S'/Users/cole/Music/iTunes/iTunes Media/Music/Bjo\xcc\x88rk/Debut'
p1127
tp1128
a(S'/Users/cole/Music/iTunes/iTunes Media/Music/Rob Simonsen/For Nihon'
p1129
tp1130
a(S'/Users/cole/Music/iTunes/iTunes Media/Music/aKido/Gamechanger'
p1131
tp1132
a(S'/Users/cole/Music/iTunes/iTunes Media/Music/Vaetxh/Mass'
p1133
tp1134
a(S'/Users/cole/Music/iTunes/iTunes Media/Music/AFX/Hangable Auto Bulb'
p1135
tp1136
a(S'/Users/cole/Music/iTunes/iTunes Media/Music/Stereolab/Aluminum Tunes_ Switched On, Vol. 3'
p1137
tp1138
a(S'/Users/cole/Music/iTunes/iTunes Media/Music/The Octopus Project/Identification Parade'
p1139
tp1140
a(S'/Users/cole/Music/iTunes/iTunes Media/Music/Home Video/No Certain Night or Morning'
p1141
tp1142
a(S'/Users/cole/Music/iTunes/iTunes Media/Music/Fairmont/Coloured In Memory'
p1143
tp1144
a(S"/Users/cole/Music/iTunes/iTunes Media/Music/L'usine/Condensed"
p1145
tp1146
a(S'/Users/cole/Music/iTunes/iTunes Media/Music/bjork/Unknown Album'
p1147
tp1148
a(S'/Users/cole/Music/iTunes/iTunes Media/Music/Pixies/Bossanova'
p1149
tp1150
a(S'/Users/cole/Music/iTunes/iTunes Media/Music/Slowdive/Souvlaki'
p1151
tp1152
a(S"/Users/cole/Music/iTunes/iTunes Media/Music/Freescha/What's Come Inside You"
p1153
tp1154
a(S'/Users/cole/Music/iTunes/iTunes Media/Music/Orbital/In Sides (Bonus Disc)'
p1155
tp1156
a(S'/Users/cole/Music/iTunes/iTunes Media/Music/Paramnesic/None'
p1157
tp1158
a(S'/Users/cole/Music/iTunes/iTunes Media/Music/Bonobo/Black Sands'
p1159
tp1160
a(S'/Users/cole/Music/iTunes/iTunes Media/Music/The Flashbulb/Arboreal'
p1161
tp1162
a(S'/Users/cole/Music/iTunes/iTunes Media/Music/Squarepusher/Ufabulum'
p1163
tp1164
a(S'/Users/cole/Music/iTunes/iTunes Media/Music/The Future Sound Of London/Northern Exposure'
p1165
tp1166
a(S'/Users/cole/Music/iTunes/iTunes Media/Music/Pixies/Doolittle'
p1167
tp1168
a(S'/Users/cole/Music/iTunes/iTunes Media/Music/Art Of Silence/Northern Exposure 2 - Westcoast Edition'
p1169
tp1170
a(S'/Users/cole/Music/iTunes/iTunes Media/Music/Clark/Clark'
p1171
tp1172
a(S'/Users/cole/Music/iTunes/iTunes Media/Music/Radiohead/Just [SINGLE] #2'
p1173
tp1174
a(S'/Users/cole/Music/iTunes/iTunes Media/Music/Ochre/Lemodie'
p1175
tp1176
a(S'/Users/cole/Music/iTunes/iTunes Media/Music/KiloWatts/Ground State'
p1177
tp1178
a(S'/Users/cole/Music/iTunes/iTunes Media/Music/Plone/For Beginner Piano'
p1179
tp1180
a(S'/Users/cole/Music/iTunes/iTunes Media/Music/Khonnor/Handwriting'
p1181
tp1182
a(S'/Users/cole/Music/iTunes/iTunes Media/Music/Ran Kirlian/Aftermath of a quantum nature'
p1183
tp1184
a(S"/Users/cole/Music/iTunes/iTunes Media/Music/Samiyam/Sam Baker's Album"
p1185
tp1186
a(S'/Users/cole/Music/iTunes/iTunes Media/Music/Crisopa/Biodance'
p1187
tp1188
a(S'/Users/cole/Music/iTunes/iTunes Media/Music/Ilkae/Bring Extra Dragons'
p1189
tp1190
a(S'/Users/cole/Music/iTunes/iTunes Media/Music/aus/For Nihon'
p1191
tp1192
a(S"/Users/cole/Music/iTunes/iTunes Media/Music/Plaid/Heaven's Door"
p1193
tp1194
a(S'/Users/cole/Music/iTunes/iTunes Media/Music/Plaid/Dialp'
p1195
tp1196
a(S'/Users/cole/Music/iTunes/iTunes Media/Music/Stars of the Lid/The Tired Sounds of Stars of the Lid'
p1197
tp1198
a(S'/Users/cole/Music/iTunes/iTunes Media/Music/Chris Clark/Feast _ Beast'
p1199
tp1200
a(S'/Users/cole/Music/iTunes/iTunes Media/Music/Tycho/The Science of Patterns'
p1201
tp1202
a(S'/Users/cole/Music/iTunes/iTunes Media/Music/The Crystal Method/Tweekend'
p1203
tp1204
a(S'/Users/cole/Music/iTunes/iTunes Media/Music/Yimino/Autonoe Vora'
p1205
tp1206
a(S'/Users/cole/Music/iTunes/iTunes Media/Music/Bjo\xcc\x88rk/Unknown Album'
p1207
tp1208
a(S'/Users/cole/Music/iTunes/iTunes Media/Music/Freescha/Slower Than Church Music'
p1209
tp1210
a(S'/Users/cole/Music/iTunes/iTunes Media/Music/Laura Escude\xcc\x81/Pororoca'
p1211
tp1212
a(S'/Users/cole/Music/iTunes/iTunes Media/Music/Brian Eno/Ambient 4_On Land'
p1213
tp1214
a(S'/Users/cole/Music/iTunes/iTunes Media/Music/Kona Triangle/Sing a New Sapling into Existence'
p1215
tp1216
a(S'/Users/cole/Music/iTunes/iTunes Media/Music/Airiel/Winks & Kisses_ Crackled'
p1217
tp1218
a(S'/Users/cole/Music/iTunes/iTunes Media/Music/Justice/\xe2\x80\xa0'
p1219
tp1220
a(S'/Users/cole/Music/iTunes/iTunes Media/Music/Sasha & John Digweed/Northern Exposure 2 - Westcoast Edition'
p1221
tp1222
a(S'/Users/cole/Music/iTunes/iTunes Media/Music/The Black Dog/Temple Of Transparent Balls'
p1223
tp1224
a(S'/Users/cole/Music/iTunes/iTunes Media/Music/Boards of Canada/Tomorrow_s Harvest'
p1225
tp1226
a(S'/Users/cole/Music/iTunes/iTunes Media/Music/91Plus/Secret Station - Broadcast Four'
p1227
tp1228
a(S'/Users/cole/Music/iTunes/iTunes Media/Music/Stereolab/Fab Four Suture'
p1229
tp1230
a(S'/Users/cole/Music/iTunes/iTunes Media/Music/Bjo\xcc\x88rk/the observer'
p1231
tp1232
a(S'/Users/cole/Music/iTunes/iTunes Media/Music/Orbital/Mortal Kombat Soundtrack'
p1233
tp1234
a(S'/Users/cole/Music/iTunes/iTunes Media/Music/Movement Perpetual/Northern Exposure - Expedition 2'
p1235
tp1236
a(S'/Users/cole/Music/iTunes/iTunes Media/Music/Peter Broderick/For Nihon'
p1237
tp1238
a(S"/Users/cole/Music/iTunes/iTunes Media/Music/Freescha/What's Come Inside of You"
p1239
tp1240
a(S'/Users/cole/Music/iTunes/iTunes Media/Music/Rhian Sheehan/Seven Tales of The North Wind'
p1241
tp1242
a(S'/Users/cole/Music/iTunes/iTunes Media/Music/Bonobo/The North Borders'
p1243
tp1244
a(S'/Users/cole/Music/iTunes/iTunes Media/Music/People Press Play/People Press Play'
p1245
tp1246
a(S'/Users/cole/Music/iTunes/iTunes Media/Music/Aphex Twin/saw2 reworks'
p1247
tp1248
a(S'/Users/cole/Music/iTunes/iTunes Media/Music/Autechre/Amber'
p1249
tp1250
a(S'/Users/cole/Music/iTunes/iTunes Media/Music/Moderat/Moderat (Deluxe Version)'
p1251
tp1252
a(S'/Users/cole/Music/iTunes/iTunes Media/Music/Girl Talk/All Day'
p1253
tp1254
a(S'/Users/cole/Music/iTunes/iTunes Media/Music/Biosphere/Substrata'
p1255
tp1256
a(S'/Users/cole/Music/iTunes/iTunes Media/Music/Bruno Sanfilippo & Mathias Grassow/Aftermath of a quantum nature'
p1257
tp1258
a(S'/Users/cole/Music/iTunes/iTunes Media/Music/Ken Aoki and Kenichi Oka/Secret Station - Broadcast Four'
p1259
tp1260
a(S'/Users/cole/Music/iTunes/iTunes Media/Music/Mono_Poly/Golden Skies'
p1261
tp1262
a(S'/Users/cole/Music/iTunes/iTunes Media/Music/Voyager/Northern Exposure - Expedition 2'
p1263
tp1264
a(S'/Users/cole/Music/iTunes/iTunes Media/Music/Plaid/Tekkonkinkreet'
p1265
tp1266
a(S'/Users/cole/Music/iTunes/iTunes Media/Music/Plod/Pillow Talk'
p1267
tp1268
a(S'/Users/cole/Music/iTunes/iTunes Media/Music/Chris Clark/Body Riddle'
p1269
tp1270
a(S'/Users/cole/Music/iTunes/iTunes Media/Music/This Will Destroy You/Young Mountain'
p1271
tp1272
a(S'/Users/cole/Music/iTunes/iTunes Media/Music/Boards of Canada/Mask 200'
p1273
tp1274
a(S'/Users/cole/Music/iTunes/iTunes Media/Music/Squarepusher/Just a Souvenir'
p1275
tp1276
a(S'/Users/cole/Music/iTunes/iTunes Media/Music/Plaid & Bob Jaroc/Greedy Baby'
p1277
tp1278
a(S'/Users/cole/Music/iTunes/iTunes Media/Music/Airiel/Winks & Kisses_ Frosted'
p1279
tp1280
a(S'/Users/cole/Music/iTunes/iTunes Media/Music/Boards of Canada/A Few Old Tunes Vol. 2'
p1281
tp1282
a(S'/Users/cole/Music/iTunes/iTunes Media/Music/Samiyam/Wish You Were Here'
p1283
tp1284
a(S'/Users/cole/Music/iTunes/iTunes Media/Music/Near The Parenthesis/Japanese for Beginners'
p1285
tp1286
a(S'/Users/cole/Music/iTunes/iTunes Media/Music/Machine Drum/Now You Know'
p1287
tp1288
a(S"/Users/cole/Music/iTunes/iTunes Media/Music/Styrofoam/Nothing's Lost"
p1289
tp1290
a(S'/Users/cole/Music/iTunes/iTunes Media/Music/Tycho/Coastal Brake'
p1291
tp1292
a(S'/Users/cole/Music/iTunes/iTunes Media/Music/Amon Tobin/Supermodified'
p1293
tp1294
a(S'/Users/cole/Music/iTunes/iTunes Media/Music/The Sabres Of Paradise'
p1295
S'/Users/cole/Music/iTunes/iTunes Media/Music/The Sabres Of Paradise/Warp 10+3 Remixes (Disc 2)'
p1296
tp1297
a(S'/Users/cole/Music/iTunes/iTunes Media/Music/Oneohtrix Point Never/Replica'
p1298
tp1299
a(S'/Users/cole/Music/iTunes/iTunes Media/Music/Plaid/Peel Session'
p1300
tp1301
a(S'/Users/cole/Music/iTunes/iTunes Media/Music/Working For A Nuclear Free City/Working For A Nuclear Free City'
p1302
tp1303
a(S'/Users/cole/Music/iTunes/iTunes Media/Music/Radiohead/Vanilla Sky'
p1304
tp1305
a(S'/Users/cole/Music/iTunes/iTunes Media/Music/Styrofoam/A Thousand Words'
p1306
tp1307
a(S'/Users/cole/Music/iTunes/iTunes Media/Music/Plaid/Faster'
p1308
tp1309
a(S'/Users/cole/Music/iTunes/iTunes Media/Music/Portishead/Third'
p1310
tp1311
a(S'/Users/cole/Music/iTunes/iTunes Media/Music/Yamaoka/Secret Station - Broadcast Four'
p1312
tp1313
a(S'/Users/cole/Music/iTunes/iTunes Media/Music/Venetian Snares/Rossz Csillag Alatt Szu\xcc\x88letett'
p1314
tp1315
a(S'/Users/cole/Music/iTunes/iTunes Media/Music/VHS Head/Trademark Ribbons of Gold'
p1316
tp1317
a(S'/Users/cole/Music/iTunes/iTunes Media/Music/Plaid/Trainer'
p1318
tp1319
a(S'/Users/cole/Music/iTunes/iTunes Media/Music/Various Artists/Warp20 (Unheard)'
p1320
tp1321
a(S'/Users/cole/Music/iTunes/iTunes Media/Music/Machine Drum/Urban Biology'
p1322
tp1323
a(S'/Users/cole/Music/iTunes/iTunes Media/Music/The American Dollar/The American Dollar'
p1324
tp1325
a(S'/Users/cole/Music/iTunes/iTunes Media/Music/Point 7/What_'
p1326
tp1327
a(S'/Users/cole/Music/iTunes/iTunes Media/Music/Sven Vath/Northern Exposure 2 - Westcoast Edition'
p1328
tp1329
a(S'/Users/cole/Music/iTunes/iTunes Media/Music/Deru/Trying to Remember'
p1330
tp1331
a(S'/Users/cole/Music/iTunes/iTunes Media/Music/Portishead/Dummy'
p1332
tp1333
a(S'/Users/cole/Music/iTunes/iTunes Media/Music/KILN/Holo [re_lux]'
p1334
tp1335
a(S'/Users/cole/Music/iTunes/iTunes Media/Music/God Within/Northern Exposure'
p1336
tp1337
a(S'/Users/cole/Music/iTunes/iTunes Media/Music/Seth Haley/The Lonely Hike'
p1338
tp1339
a(S'/Users/cole/Music/iTunes/iTunes Media/Music/Overcast Sound/Commute [basicsounds.ca - bsc_020]'
p1340
tp1341
a(S'/Users/cole/Music/iTunes/iTunes Media/Music/Esem/Serial Human'
p1342
tp1343
a(S'/Users/cole/Music/iTunes/iTunes Media/Music/Fjordne/The Last 3 Days of Time'
p1344
tp1345
a(S'/Users/cole/Music/iTunes/iTunes Media/Music/Chemical Brothers/Brothers Gonna Work it Out'
p1346
tp1347
a(S'/Users/cole/Music/iTunes/iTunes Media/Music/Conelrad/Unknown Album'
p1348
tp1349
a(S'/Users/cole/Music/iTunes/iTunes Media/Music/Radiohead/Fake Plastic Trees CD2'
p1350
tp1351
a(S'/Users/cole/Music/iTunes/iTunes Media/Music/Stereolab/Peng!'
p1352
tp1353
a(S'/Users/cole/Music/iTunes/iTunes Media/Music/Toro Y Moi/Anything In Return'
p1354
tp1355
a(S'/Users/cole/Music/iTunes/iTunes Media/Music/FaltyDL/Bonus CDR Tracks'
p1356
tp1357
a(S'/Users/cole/Music/iTunes/iTunes Media/Music/FaltyDL/In The Wild'
p1358
tp1359
a(S'/Users/cole/Music/iTunes/iTunes Media/Music/Bjo\xcc\x88rk/All is full of Bjo\xcc\x88rk'
p1360
tp1361
a(S'/Users/cole/Music/iTunes/iTunes Media/Music/Aphex Twin/Drukqs (Disc 1)'
p1362
S'/Users/cole/Music/iTunes/iTunes Media/Music/Aphex Twin/Drukqs (Disc 2)'
p1363
tp1364
a(S'/Users/cole/Music/iTunes/iTunes Media/Music/Pivot/In The Blood'
p1365
tp1366
a(S"/Users/cole/Music/iTunes/iTunes Media/Music/Radiohead/Oxford's Angels"
p1367
tp1368
a(S"/Users/cole/Music/iTunes/iTunes Media/Music/L'usine/The Waiting Room"
p1369
tp1370
a(S'/Users/cole/Music/iTunes/iTunes Media/Music/Mike Ink'
p1371
S'/Users/cole/Music/iTunes/iTunes Media/Music/Mike Ink/Warp 10+3 Remixes (Disc 2)'
p1372
tp1373
a(S'/Users/cole/Music/iTunes/iTunes Media/Music/bjork/the observer'
p1374
tp1375
a(S'/Users/cole/Music/iTunes/iTunes Media/Music/Air/Moon Safari'
p1376
tp1377
a(S'/Users/cole/Music/iTunes/iTunes Media/Music/Olafur Arnalds/For Nihon'
p1378
tp1379
a(S'/Users/cole/Music/iTunes/iTunes Media/Music/Sven Vath/Accident In Paradise'
p1380
tp1381
a(S'/Users/cole/Music/iTunes/iTunes Media/Music/Baths/Obsidian'
p1382
tp1383
a(S'/Users/cole/Music/iTunes/iTunes Media/Music/Explosions In The Sky/All Of A Sudden I Miss Everyone'
p1384
tp1385
a(S'/Users/cole/Music/iTunes/iTunes Media/Music/Caribou/Up in Flames'
p1386
tp1387
a(S'/Users/cole/Music/iTunes/iTunes Media/Music/Andre\xcc\x81 Obin/Under The Mountain compilation [ISO50 Exclusive]'
p1388
tp1389
a(S'/Users/cole/Music/iTunes/iTunes Media/Music/Clouddead/Ten (Bonus Disc)'
p1390
tp1391
a(S'/Users/cole/Music/iTunes/iTunes Media/Music/Bexar Bexar/For Nihon'
p1392
tp1393
a(S'/Users/cole/Music/iTunes/iTunes Media/Music/Air/Casanova 70'
p1394
tp1395
a(S'/Users/cole/Music/iTunes/iTunes Media/Music/Hammock/For Nihon'
p1396
tp1397
a(S'/Users/cole/Music/iTunes/iTunes Media/Music/The Sight Below/Glider (Deluxe Version)'
p1398
tp1399
a(S'/Users/cole/Music/iTunes/iTunes Media/Music/Bjo\xcc\x88rk/Post'
p1400
tp1401
a(S'/Users/cole/Music/iTunes/iTunes Media/Music/Godspeed You! Black Emperor/Lift Yr. Skinny Fists Like Antennas to Heaven!'
p1402
tp1403
a(S'/Users/cole/Music/iTunes/iTunes Media/Music/Oneohtrix Point Never/R Plus Seven'
p1404
tp1405
a(S'/Users/cole/Music/iTunes/iTunes Media/Music/Airiel/Winks & Kisses_ Dizzy'
p1406
tp1407
a(S'/Users/cole/Music/iTunes/iTunes Media/Music/Yimino/Doe [Explicit]'
p1408
tp1409
a(S'/Users/cole/Music/iTunes/iTunes Media/Music/Nosaj Thing/Drift Remixed'
p1410
tp1411
a(S'/Users/cole/Music/iTunes/iTunes Media/Music/Chemical Brothers/Surrender'
p1412
tp1413
a(S'/Users/cole/Music/iTunes/iTunes Media/Music/Smokes Quantity _ 1986 Summer/Twoism'
p1414
tp1415
a(S'/Users/cole/Music/iTunes/iTunes Media/Music/Mark Preston/_..And It Will Rise With the Sun'
p1416
tp1417
a(S'/Users/cole/Music/iTunes/iTunes Media/Music/Autechre/Basscadet'
p1418
tp1419
a(S'/Users/cole/Music/iTunes/iTunes Media/Music/Drexon Field/Secret Station - Broadcast Four'
p1420
tp1421
a(S'/Users/cole/Music/iTunes/iTunes Media/Music/Stars of the Lid/Tired Sounds (CD1_2)'
p1422
S'/Users/cole/Music/iTunes/iTunes Media/Music/Stars of the Lid/Tired Sounds (CD2_2)'
p1423
tp1424
a(S'/Users/cole/Music/iTunes/iTunes Media/Music/Biosphere/For Nihon'
p1425
tp1426
a(S'/Users/cole/Music/iTunes/iTunes Media/Music/Ryuichi Sakamoto/Playing The Piano - US Version'
p1427
tp1428
a(S'/Users/cole/Music/iTunes/iTunes Media/Music/Boards of Canada/Old Tunes, Volume 2'
p1429
tp1430
a(S'/Users/cole/Music/iTunes/iTunes Media/Music/Horizon Fire/Chemtrail'
p1431
tp1432
a(S'/Users/cole/Music/iTunes/iTunes Media/Music/D. Gookin/Under The Mountain compilation [ISO50 Exclusive]'
p1433
tp1434
a(S'/Users/cole/Music/iTunes/iTunes Media/Music/Stereolab/Sound-Dust'
p1435
tp1436
a(S'/Users/cole/Music/iTunes/iTunes Media/Music/Conelrad/Five Automatic Landings'
p1437
tp1438
a(S'/Users/cole/Music/iTunes/iTunes Media/Music/Daisuke Tanabe/After Few Layers Before'
p1439
tp1440
a(S'/Users/cole/Music/iTunes/iTunes Media/Music/Lone/Lemurian'
p1441
tp1442
a(S'/Users/cole/Music/iTunes/iTunes Media/Music/Boards of Canada/A Few Old Tunes Vol.1'
p1443
tp1444
a(S'/Users/cole/Music/iTunes/iTunes Media/Music/Christ_/Blue Shift Emissions'
p1445
tp1446
a(S'/Users/cole/Music/iTunes/iTunes Media/Music/The American Dollar/Awake in the City'
p1447
tp1448
a(S'/Users/cole/Music/iTunes/iTunes Media/Music/Pixies/Death To The Pixies (Disc 1)'
p1449
S'/Users/cole/Music/iTunes/iTunes Media/Music/Pixies/Death To The Pixies (Disc 2)'
p1450
tp1451
a(S'/Users/cole/Music/iTunes/iTunes Media/Music/Radiohead/Knives Out [SINGLE] #1'
p1452
tp1453
a(S'/Users/cole/Music/iTunes/iTunes Media/Music/The American Dollar/Atlas'
p1454
tp1455
a(S'/Users/cole/Music/iTunes/iTunes Media/Music/M83/Dead Cities, Red Seas, and Lost Ghosts'
p1456
tp1457
a(S'/Users/cole/Music/iTunes/iTunes Media/Music/Tim Hecker/Haunt Me, Haunt Me Do It Again'
p1458
tp1459
a(S"/Users/cole/Music/iTunes/iTunes Media/Music/Yasume/Where We're From The Birds Sing A Pretty Song"
p1460
tp1461
a(S'/Users/cole/Music/iTunes/iTunes Media/Music/Telefon Tel Aviv/Immolate Yourself'
p1462
tp1463
a(S'/Users/cole/Music/iTunes/iTunes Media/Music/Band Ane/Anish Music Too & Free'
p1464
tp1465
a(S'/Users/cole/Music/iTunes/iTunes Media/Music/aus/Antwarps'
p1466
tp1467
a(S'/Users/cole/Music/iTunes/iTunes Media/Music/Mental Health Consumer/Secret Station - Broadcast Four'
p1468
tp1469
a(S'/Users/cole/Music/iTunes/iTunes Media/Music/Aphex Twin/Peel Session 1'
p1470
tp1471
a(S'/Users/cole/Music/iTunes/iTunes Media/Music/Seefeel/Warp 10+3 Remixes (Disc 1)'
p1472
S'/Users/cole/Music/iTunes/iTunes Media/Music/Seefeel/Warp 10+3 Remixes (Disc 2)'
p1473
tp1474
a(S'/Users/cole/Music/iTunes/iTunes Media/Music/Rhian Sheehan/For Nihon'
p1475
tp1476
a(S'/Users/cole/Music/iTunes/iTunes Media/Music/Yppah/Eighty One'
p1477
tp1478
a(S'/Users/cole/Music/iTunes/iTunes Media/Music/Autechre/Untilted'
p1479
tp1480
a(S'/Users/cole/Music/iTunes/iTunes Media/Music/The Flashbulb/Kirlian Selections'
p1481
tp1482
a(S'/Users/cole/Music/iTunes/iTunes Media/Music/Why_/The Hollows'
p1483
tp1484
a(S'/Users/cole/Music/iTunes/iTunes Media/Music/Outputmessage/Nebulae'
p1485
tp1486
a(S'/Users/cole/Music/iTunes/iTunes Media/Music/(ghost)/Departure'
p1487
tp1488
a(S'/Users/cole/Music/iTunes/iTunes Media/Music/Radiohead/Pyramid Song (Single CD1)'
p1489
S'/Users/cole/Music/iTunes/iTunes Media/Music/Radiohead/Pyramid Song (Single CD2)'
p1490
tp1491
a(S'/Users/cole/Music/iTunes/iTunes Media/Music/Radiohead/Amnesiac'
p1492
tp1493
a(S'/Users/cole/Music/iTunes/iTunes Media/Music/The Chap/Mega Breakfast'
p1494
tp1495
a(S'/Users/cole/Music/iTunes/iTunes Media/Music/Sweet Exorcist'
p1496
S'/Users/cole/Music/iTunes/iTunes Media/Music/Sweet Exorcist/Warp 10+3 Remixes (Disc 1)'
p1497
S'/Users/cole/Music/iTunes/iTunes Media/Music/Sweet Exorcist/Warp 10+3 Remixes (Disc 2)'
p1498
tp1499
a(S'/Users/cole/Music/iTunes/iTunes Media/Music/Stellardrone/Light Years'
p1500
tp1501
a(S'/Users/cole/Music/iTunes/iTunes Media/Music/Moderat/II'
p1502
tp1503
a(S'/Users/cole/Music/iTunes/iTunes Media/Music/Yimino/Qeh 2004'
p1504
tp1505
a(S"/Users/cole/Music/iTunes/iTunes Media/Music/Dustin O'Halloran featuring Adam Wiltzie/For Nihon"
p1506
tp1507
a(S'/Users/cole/Music/iTunes/iTunes Media/Music/Starfawn/Under The Mountain compilation [ISO50 Exclusive]'
p1508
tp1509
a(S'/Users/cole/Music/iTunes/iTunes Media/Music/Ocoeur/A Parallel Life'
p1510
tp1511
a(S'/Users/cole/Music/iTunes/iTunes Media/Music/Stars of the Lid/And Their Refinement of the Decline'
p1512
tp1513
a(S'/Users/cole/Music/iTunes/iTunes Media/Music/Air/Unknown Album'
p1514
tp1515
a(S'/Users/cole/Music/iTunes/iTunes Media/Music/Chris Clark/Clarence Park'
p1516
tp1517
a(S'/Users/cole/Music/iTunes/iTunes Media/Music/Kettel/Cuddle And Then Leave'
p1518
tp1519
a(S'/Users/cole/Music/iTunes/iTunes Media/Music/Machinedrum/Want to 1 2_'
p1520
tp1521
a(S"/Users/cole/Music/iTunes/iTunes Media/Music/The Orb/The Orb's Adventures Beyond The Ultraworld"
p1522
tp1523
a(S'/Users/cole/Music/iTunes/iTunes Media/Music/Plaid/P-Brane EP'
p1524
tp1525
a(S'/Users/cole/Music/iTunes/iTunes Media/Music/Arcticology/Athena'
p1526
tp1527
a(S'/Users/cole/Music/iTunes/iTunes Media/Music/Aphex Twin/Drukqs'
p1528
tp1529
a(S'/Users/cole/Music/iTunes/iTunes Media/Music/Victor Bermon/Arriving At Night'
p1530
tp1531
a(S'/Users/cole/Music/iTunes/iTunes Media/Music/Orbital/Unknown Album'
p1532
tp1533
a(S'/Users/cole/Music/iTunes/iTunes Media/Music/Boards of Canada/Hi Scores'
p1534
tp1535
a(S'/Users/cole/Music/iTunes/iTunes Media/Music/Tom Middleton/Lifetracks'
p1536
tp1537
a(S'/Users/cole/Music/iTunes/iTunes Media/Music/Aphex Twin/Windowlicker'
p1538
tp1539
a(S'/Users/cole/Music/iTunes/iTunes Media/Music/Ciaran Byrne/Nine Lives Causeway'
p1540
tp1541
a(S'/Users/cole/Music/iTunes/iTunes Media/Music/aKido/Remodels Vol.1'
p1542
tp1543
a(S'/Users/cole/Music/iTunes/iTunes Media/Music/Herrmann & Kleine/Our Noise'
p1544
tp1545
a(S'/Users/cole/Music/iTunes/iTunes Media/Music/Boards of Canada/Geogaddi'
p1546
tp1547
a(S'/Users/cole/Music/iTunes/iTunes Media/Music/Grimes/Visions'
p1548
tp1549
a(S'/Users/cole/Music/iTunes/iTunes Media/Music/Hammock/Raising Your Voice...Trying to Stop an Echo'
p1550
tp1551
a(S'/Users/cole/Music/iTunes/iTunes Media/Music/Boards of Canada/[non-album tracks]'
p1552
tp1553
a(S'/Users/cole/Music/iTunes/iTunes Media/Music/Isan/Glow In The Dark Safari Set'
p1554
tp1555
a(S'/Users/cole/Music/iTunes/iTunes Media/Music/Stereolab/Instant 0 in the Universe'
p1556
tp1557
a(S'/Users/cole/Music/iTunes/iTunes Media/Music/Tycho/Dive'
p1558
tp1559
a(S'/Users/cole/Music/iTunes/iTunes Media/Music/The American Dollar _ Arms and Sleepers/From the Inland Sea'
p1560
tp1561
a(S'/Users/cole/Music/iTunes/iTunes Media/Music/M83/Dead Cities, Red Seas & Lost Ghosts'
p1562
tp1563
a(S'/Users/cole/Music/iTunes/iTunes Media/Music/Gold Panda/Lucky Shiner'
p1564
tp1565
a(S'/Users/cole/Music/iTunes/iTunes Media/Music/Radiohead/Paranoid Android CD Single (2)'
p1566
tp1567
a(S'/Users/cole/Music/iTunes/iTunes Media/Music/Future Sound Of London/Dead Cities'
p1568
tp1569
a(S'/Users/cole/Music/iTunes/iTunes Media/Music/Radiohead/Ok Computer'
p1570
tp1571
a(S'/Users/cole/Music/iTunes/iTunes Media/Music/Yimino/Archive I'
p1572
tp1573
a(S'/Users/cole/Music/iTunes/iTunes Media/Music/Boards of Canada/Mask 500'
p1574
tp1575
a(S'/Users/cole/Music/iTunes/iTunes Media/Music/Squarepusher/Numbers Lucent'
p1576
tp1577
a(S"/Users/cole/Music/iTunes/iTunes Media/Music/Plaid/Heaven's Door_ The Soundtrack"
p1578
tp1579
a(S'/Users/cole/Music/iTunes/iTunes Media/Music/Sigur Ros/()'
p1580
tp1581
a(S'/Users/cole/Music/iTunes/iTunes Media/Music/Secede/Tryshasla'
p1582
tp1583
a(S'/Users/cole/Music/iTunes/iTunes Media/Music/Yimino/Throwing Shade'
p1584
tp1585
a(S'/Users/cole/Music/iTunes/iTunes Media/Music/Daft Punk/Homework'
p1586
tp1587
a(S'/Users/cole/Music/iTunes/iTunes Media/Music/M83/Saturdays = Youth'
p1588
tp1589
a(S'/Users/cole/Music/iTunes/iTunes Media/Music/Radiohead/No Surprises (Single #1) [UK]'
p1590
tp1591
a(S'/Users/cole/Music/iTunes/iTunes Media/Music/Field/Looping State of Mind'
p1592
tp1593
a(S'/Users/cole/Music/iTunes/iTunes Media/Music/DARKSIDE/Psychic'
p1594
tp1595
a(S'/Users/cole/Music/iTunes/iTunes Media/Music/Hudson Mohawke/Butter'
p1596
tp1597
a(S'/Users/cole/Music/iTunes/iTunes Media/Music/The Black Dog/Spanners'
p1598
tp1599
a(S'/Users/cole/Music/iTunes/iTunes Media/Music/Christina Vantzou/For Nihon'
p1600
tp1601
a(S'/Users/cole/Music/iTunes/iTunes Media/Music/Yimino/The Evolution Of Bulbuss and The Polymorphic Nightmare'
p1602
tp1603
a(S'/Users/cole/Music/iTunes/iTunes Media/Music/Freescha/Freeschaland'
p1604
tp1605
a(S'/Users/cole/Music/iTunes/iTunes Media/Music/Caribou/Andorra'
p1606
tp1607
a(S'/Users/cole/Music/iTunes/iTunes Media/Music/Ulrich Schnauss & Mark Peters/For Nihon'
p1608
tp1609
a(S'/Users/cole/Music/iTunes/iTunes Media/Music/Nullsleep/Electric Heart Strike'
p1610
tp1611
a(S'/Users/cole/Music/iTunes/iTunes Media/Music/Jon Hopkins/For Nihon'
p1612
tp1613
a(S'/Users/cole/Music/iTunes/iTunes Media/Music/Future Rock/2005.02.18 Subterranean'
p1614
tp1615
a(S"/Users/cole/Music/iTunes/iTunes Media/Music/Compilations/Auntie Aubrey's Excursions Beyond The Call Of Duty (The Orb Remix Project) (Disc 1)"
p1616
S"/Users/cole/Music/iTunes/iTunes Media/Music/Compilations/Auntie Aubrey's Excursions Beyond The Call Of Duty (The Orb Remix Project) (Disc 2)"
p1617
tp1618
a(S'/Users/cole/Music/iTunes/iTunes Media/Music/DJ Shadow/The Private Press (Advance)'
p1619
tp1620
a(S'/Users/cole/Music/iTunes/iTunes Media/Music/Ellen Allien & Apparat/Orchestra Of Bubbles'
p1621
tp1622
a(S"/Users/cole/Music/iTunes/iTunes Media/Music/L'usine/A Certain Distance"
p1623
tp1624
a(S'/Users/cole/Music/iTunes/iTunes Media/Music/Asobi Seksu/Citrus'
p1625
tp1626
a(S'/Users/cole/Music/iTunes/iTunes Media/Music/Machinedrum/Room(s)'
p1627
tp1628
a(S'/Users/cole/Music/iTunes/iTunes Media/Music/The Future Sound Of London/Papua New Guinea Translations'
p1629
tp1630
a(S'/Users/cole/Music/iTunes/iTunes Media/Music/Stereolab/Switched On'
p1631
tp1632
a(S'/Users/cole/Music/iTunes/iTunes Media/Music/Bjo\xcc\x88rk/_                            _'
p1633
tp1634
a(S'/Users/cole/Music/iTunes/iTunes Media/Music/Apparat/Duplex'
p1635
tp1636
a(S'/Users/cole/Music/iTunes/iTunes Media/Music/Nathan Fake/Hard Islands'
p1637
tp1638
a(S'/Users/cole/Music/iTunes/iTunes Media/Music/Stef, Pako & Frederick/Northern Exposure - Expedition 2'
p1639
tp1640
a(S'/Users/cole/Music/iTunes/iTunes Media/Music/Near The Parenthesis/For Nihon'
p1641
tp1642
a(S'/Users/cole/Music/iTunes/iTunes Media/Music/Solange/Sol-Angel and the Hadley St.._'
p1643
tp1644
a(S'/Users/cole/Music/iTunes/iTunes Media/Music/Christ_/metamorphic reproduction miracle lp'
p1645
tp1646
a(S'/Users/cole/Music/iTunes/iTunes Media/Music/Tim Hecker/Radio Amor'
p1647
tp1648
a(S"/Users/cole/Music/iTunes/iTunes Media/Music/Deastro/Keeper's"
p1649
tp1650
a(S'/Users/cole/Music/iTunes/iTunes Media/Music/Telefon Tel Aviv/Fahrenheit Fair Enough'
p1651
tp1652
a(S'/Users/cole/Music/iTunes/iTunes Media/Music/Compilations/A Dream Upon Waking (disc 1)'
p1653
S'/Users/cole/Music/iTunes/iTunes Media/Music/Compilations/A Dream Upon Waking (disc 2)'
p1654
tp1655
a(S'/Users/cole/Music/iTunes/iTunes Media/Music/Radiohead/Paranoid Android [SINGLE] #1'
p1656
tp1657
a(S'/Users/cole/Music/iTunes/iTunes Media/Music/Aphex Twin/Selected Ambient Works 85\xe2\x80\x9392'
p1658
tp1659
a(S'/Users/cole/Music/iTunes/iTunes Media/Music/Ocoeur/Light as a Feather'
p1660
tp1661
a(S'/Users/cole/Music/iTunes/iTunes Media/Music/Tobacco/Maniac Meat'
p1662
tp1663
a(S'/Users/cole/Music/iTunes/iTunes Media/Music/Nosaj Thing/Home'
p1664
tp1665
a(S'/Users/cole/Music/iTunes/iTunes Media/Music/The Depreciation Guild/Spirit Youth'
p1666
tp1667
a(S'/Users/cole/Music/iTunes/iTunes Media/Music/Orbital/Orbital'
p1668
tp1669
a(S'/Users/cole/Music/iTunes/iTunes Media/Music/Bibio/Silver Wilkinson'
p1670
tp1671
a(S'/Users/cole/Music/iTunes/iTunes Media/Music/Tycho/The Daydream _ The Disconnect'
p1672
tp1673
a(S'/Users/cole/Music/iTunes/iTunes Media/Music/Jackson And His Computer Band/Smash'
p1674
tp1675
a(S'/Users/cole/Music/iTunes/iTunes Media/Music/Tycho/The Science of Patterns EP'
p1676
tp1677
a(S'/Users/cole/Music/iTunes/iTunes Media/Music/Explosions In The Sky/All Of A Sudden I Miss Everyone (Remixes)'
p1678
tp1679
a(S'/Users/cole/Music/iTunes/iTunes Media/Music/Venetian Snares/My Downfall (Original Soundtrack)'
p1680
tp1681
a(S'/Users/cole/Music/iTunes/iTunes Media/Music/Stereolab/Chemical Chords'
p1682
tp1683
a(S"/Users/cole/Music/iTunes/iTunes Media/Music/Apollo 440/Gettin' High on Your Own Supply"
p1684
tp1685
a(S'/Users/cole/Music/iTunes/iTunes Media/Music/Asobi Seksu/Asobi Seksu'
p1686
tp1687
a(S'/Users/cole/Music/iTunes/iTunes Media/Music/Boy Is Fiction/Broadcasts In Colour'
p1688
tp1689
a(S'/Users/cole/Music/iTunes/iTunes Media/Music/Yimino/Archive II'
p1690
tp1691
a(S'/Users/cole/Music/iTunes/iTunes Media/Music/Radiohead/Just [SINGLE] #1'
p1692
tp1693
a(S'/Users/cole/Music/iTunes/iTunes Media/Music/Tim Hecker/Tim Hecker - Radio Amor'
p1694
tp1695
a(S'/Users/cole/Music/iTunes/iTunes Media/Music/Ulrich Schnauss/Quicksand Memory EP'
p1696
tp1697
a(S'/Users/cole/Music/iTunes/iTunes Media/Music/Ulrich Schnauss & ASC/77 EP'
p1698
tp1699
a(S'/Users/cole/Music/iTunes/iTunes Media/Music/Gable\xcc\x81/7 Guitars With A Cloud Of Milk'
p1700
tp1701
a(S'/Users/cole/Music/iTunes/iTunes Media/Music/Alka/A Dog Lost in the Woods'
p1702
tp1703
a(S'/Users/cole/Music/iTunes/iTunes Media/Music/Clark/Iradelphic'
p1704
tp1705
a(S'/Users/cole/Music/iTunes/iTunes Media/Music/loscil/untitled'
p1706
tp1707
a(S"/Users/cole/Music/iTunes/iTunes Media/Music/Boards of Canada/Boc Maxima [Essel's Remaster]"
p1708
tp1709
a(S'/Users/cole/Music/iTunes/iTunes Media/Music/Sawako/For Nihon'
p1710
tp1711
a(S'/Users/cole/Music/iTunes/iTunes Media/Music/Radiohead/Street Spirit (Fade Out)'
p1712
tp1713
a(S'/Users/cole/Music/iTunes/iTunes Media/Music/Cepia/Natura Morta'
p1714
tp1715
a(S'/Users/cole/Music/iTunes/iTunes Media/Music/aus/Lang'
p1716
tp1717
a(S'/Users/cole/Music/iTunes/iTunes Media/Music/aus/After All'
p1718
tp1719
a(S'/Users/cole/Music/iTunes/iTunes Media/Music/Beacon/Under The Mountain compilation [ISO50 Exclusive]'
p1720
tp1721
a(S'/Users/cole/Music/iTunes/iTunes Media/Music/Stereolab/Dimension Mix (To Benefit Autism Charities)'
p1722
tp1723
a(S'/Users/cole/Music/iTunes/iTunes Media/Music/Autechre - EP7'
p1724
S'/Users/cole/Music/iTunes/iTunes Media/Music/Autechre - EP7/Warp 10+3 Remixes (Disc 1)'
p1725
tp1726
a(S'/Users/cole/Music/iTunes/iTunes Media/Music/aus/Lang Remixed'
p1727
tp1728
a(S'/Users/cole/Music/iTunes/iTunes Media/Music/Bjo\xcc\x88rk/Vespertine'
p1729
tp1730
a(S'/Users/cole/Music/iTunes/iTunes Media/Music/The Flashbulb/Red Extensions of Me'
p1731
tp1732
a(S'/Users/cole/Music/iTunes/iTunes Media/Music/Flying Lotus/Cosmogramma'
p1733
tp1734
a(S'/Users/cole/Music/iTunes/iTunes Media/Music/Atoms For Peace/Amok'
p1735
tp1736
a(S'/Users/cole/Music/iTunes/iTunes Media/Music/Bibio/Mind Bokeh'
p1737
tp1738
a(S'/Users/cole/Music/iTunes/iTunes Media/Music/loscil/[untitled]'
p1739
tp1740
a(S"/Users/cole/Music/iTunes/iTunes Media/Music/Flying Lotus/You're Dead"
p1741
tp1742
a(S'/Users/cole/Music/iTunes/iTunes Media/Music/Polarstern/Northern Exposure - Expedition 2'
p1743
tp1744
a(S'/Users/cole/Music/iTunes/iTunes Media/Music/Armin/Northern Exposure 2 - Westcoast Edition'
p1745
tp1746
atp1747
Rp1748
s.